

Microchip MPLAB XC8 Assembler V2.41 build 20230208172133 
                                                                                               Sat Sep 30 15:10:26 2023

Microchip MPLAB XC8 C Compiler v2.41 (Free license) build 20230208172133 Og1 
     1                           	processor	18F4620
     2                           	fnconf	rparam,??,?,0
     3                           	pagewidth 120
     4                           	opt	flic
     5                           	psect	idataCOMRAM,global,class=CODE,delta=1,noexec
     6                           	psect	smallconst,global,reloc=2,class=SMALLCONST,delta=1,noexec
     7                           	psect	nvCOMRAM,global,class=COMRAM,space=1,delta=1,lowdata,noexec
     8                           	psect	cinit,global,reloc=2,class=CODE,delta=1
     9                           	psect	bssCOMRAM,global,class=COMRAM,space=1,delta=1,lowdata,noexec
    10                           	psect	dataCOMRAM,global,class=COMRAM,space=1,delta=1,lowdata,noexec
    11                           	psect	cstackBANK0,global,class=BANK0,space=1,delta=1,lowdata,noexec
    12                           	psect	cstackCOMRAM,global,class=COMRAM,space=1,delta=1,lowdata,noexec
    13                           	psect	text0,global,reloc=2,class=CODE,delta=1
    14                           	psect	text1,global,reloc=2,class=CODE,delta=1
    15                           	psect	text2,global,reloc=2,class=CODE,delta=1
    16                           	psect	text3,global,reloc=2,class=CODE,delta=1
    17                           	psect	text4,global,reloc=2,class=CODE,delta=1
    18                           	psect	text5,global,reloc=2,class=CODE,delta=1
    19                           	psect	text6,global,reloc=2,class=CODE,delta=1
    20                           	psect	text7,global,reloc=2,class=CODE,delta=1
    21                           	psect	text8,global,reloc=2,class=CODE,delta=1
    22                           	psect	text9,global,reloc=2,class=CODE,delta=1
    23                           	psect	text10,global,reloc=2,class=CODE,delta=1
    24                           	psect	text11,global,reloc=2,class=CODE,delta=1
    25                           	psect	text12,global,reloc=2,class=CODE,delta=1
    26                           	psect	intcode,global,reloc=2,class=CODE,delta=1
    27                           	psect	intcode_body,global,reloc=2,class=CODE,delta=1
    28                           	psect	text14,global,reloc=2,class=CODE,delta=1
    29                           	psect	text15,global,reloc=2,class=CODE,delta=1
    30                           	psect	text16,global,reloc=2,class=CODE,delta=1
    31                           	psect	text17,global,reloc=2,class=CODE,delta=1
    32                           	psect	text18,global,reloc=2,class=CODE,delta=1
    33                           	psect	text19,global,reloc=2,class=CODE,delta=1
    34                           	psect	text20,global,reloc=2,class=CODE,delta=1
    35                           	psect	text21,global,reloc=2,class=CODE,delta=1
    36                           	psect	text22,global,reloc=2,class=CODE,delta=1
    37                           	psect	intsave_regs,global,class=BIGRAM,space=1,delta=1,noexec
    38                           	psect	text23,global,reloc=2,class=CODE,delta=1
    39                           	psect	rparam,global,class=COMRAM,space=1,delta=1,noexec
    40                           	psect	temp,global,ovrld,common,class=COMRAM,space=1,delta=1
    41                           	psect	config,global,abs,ovrld,class=CONFIG,space=4,delta=1,noexec
    42   000000                     
    43                           ; Generated 23/03/2023 GMT
    44                           ; 
    45                           ; Copyright © 2023, Microchip Technology Inc. and its subsidiaries ("Microchip")
    46                           ; All rights reserved.
    47                           ; 
    48                           ; This software is developed by Microchip Technology Inc. and its subsidiaries ("Microch
      +                          ip").
    49                           ; 
    50                           ; Redistribution and use in source and binary forms, with or without modification, are
    51                           ; permitted provided that the following conditions are met:
    52                           ; 
    53                           ;     1. Redistributions of source code must retain the above copyright notice, this lis
      +                          t of
    54                           ;        conditions and the following disclaimer.
    55                           ; 
    56                           ;     2. Redistributions in binary form must reproduce the above copyright notice, this 
      +                          list
    57                           ;        of conditions and the following disclaimer in the documentation and/or other
    58                           ;        materials provided with the distribution. Publication is not required when
    59                           ;        this file is used in an embedded application.
    60                           ; 
    61                           ;     3. Microchip's name may not be used to endorse or promote products derived from th
      +                          is
    62                           ;        software without specific prior written permission.
    63                           ; 
    64                           ; THIS SOFTWARE IS PROVIDED BY MICROCHIP "AS IS" AND ANY EXPRESS OR IMPLIED WARRANTIES,
    65                           ; INCLUDING, BUT NOT LIMITED TO, THE IMPLIED WARRANTIES OF MERCHANTABILITY AND FITNESS F
      +                          OR
    66                           ; PURPOSE ARE DISCLAIMED.  IN NO EVENT SHALL MICROCHIP BE LIABLE FOR ANY DIRECT, INDIREC
      +                          T,
    67                           ; INCIDENTAL, SPECIAL, EXEMPLARY, OR CONSEQUENTIAL DAMAGES (INCLUDING BUT NOT LIMITED TO
    68                           ; PROCUREMENT OF SUBSTITUTE GOODS OR SERVICES; LOSS OF USE, DATA OR PROFITS; OR BUSINESS
    69                           ; INTERRUPTION) HOWSOEVER CAUSED AND ON ANY THEORY OF LIABILITY, WHETHER IN CONTRACT, ST
      +                          RICT
    70                           ; LIABILITY, OR TORT (INCLUDING NEGLIGENCE OR OTHERWISE) ARISING IN ANY WAY OUT OF THE U
      +                          SE OF
    71                           ; THIS SOFTWARE, EVEN IF ADVISED OF THE POSSIBILITY OF SUCH DAMAGE.
    72                           ; 
    73                           ; 
    74                           ; Code-generator required, PIC18F4620 Definitions
    75                           ; 
    76                           ; SFR Addresses
    77   000000                     
    78                           	psect	idataCOMRAM
    79   001858                     __pidataCOMRAM:
    80                           	callstack 0
    81                           
    82                           ;initializer for _port_registers
    83   001858  80                 	db	128
    84   001859  0F                 	db	15
    85   00185A  81                 	db	129
    86   00185B  0F                 	db	15
    87   00185C  82                 	db	130
    88   00185D  0F                 	db	15
    89   00185E  83                 	db	131
    90   00185F  0F                 	db	15
    91   001860  84                 	db	132
    92   001861  0F                 	db	15
    93                           
    94                           ;initializer for _lat_registers
    95   001862  89                 	db	137
    96   001863  0F                 	db	15
    97   001864  8A                 	db	138
    98   001865  0F                 	db	15
    99   001866  8B                 	db	139
   100   001867  0F                 	db	15
   101   001868  8C                 	db	140
   102   001869  0F                 	db	15
   103   00186A  8D                 	db	141
   104   00186B  0F                 	db	15
   105                           
   106                           ;initializer for _tris_registers
   107   00186C  92                 	db	146
   108   00186D  0F                 	db	15
   109   00186E  93                 	db	147
   110   00186F  0F                 	db	15
   111   001870  94                 	db	148
   112   001871  0F                 	db	15
   113   001872  95                 	db	149
   114   001873  0F                 	db	15
   115   001874  96                 	db	150
   116   001875  0F                 	db	15
   117                           
   118                           ;initializer for _lcd_2
   119   001876  32                 	db	50
   120   001877  3A                 	db	58
   121   001878  03                 	db	3
   122   001879  0B                 	db	11
   123   00187A  13                 	db	19
   124   00187B  1B                 	db	27
   125   00187C  23                 	db	35
   126   00187D  2B                 	db	43
   127   00187E  33                 	db	51
   128   00187F  3B                 	db	59
   129                           
   130                           ;initializer for _keypad1
   131   001880  02                 	db	2
   132   001881  0A                 	db	10
   133   001882  12                 	db	18
   134   001883  1A                 	db	26
   135   001884  62                 	db	98
   136   001885  6A                 	db	106
   137   001886  72                 	db	114
   138   001887  7A                 	db	122
   139                           
   140                           ;initializer for _int0_obj
   141   001888  D8                 	db	low _INT0_App_ISR
   142   001889  19                 	db	high _INT0_App_ISR
   143   00188A  41                 	db	65
   144   00188B  01                 	db	1
   145   00188C  00                 	db	0
   146   00188D  01                 	db	1
   147                           
   148                           ;initializer for _lcd_1
   149   00188E  02                 	db	2
   150   00188F  0A                 	db	10
   151   001890  12                 	db	18
   152   001891  1A                 	db	26
   153   001892  22                 	db	34
   154   001893  2A                 	db	42
   155                           
   156                           ;initializer for _RB7_Flag
   157   001894  01                 	db	1
   158                           
   159                           ;initializer for _RB6_Flag
   160   001895  01                 	db	1
   161                           
   162                           ;initializer for _RB5_Flag
   163   001896  01                 	db	1
   164                           
   165                           ;initializer for _RB4_Flag
   166   001897  01                 	db	1
   167                           
   168                           ;initializer for _led_4
   169   001898  32                 	db	50
   170                           
   171                           ;initializer for _led_3
   172   001899  22                 	db	34
   173                           
   174                           ;initializer for _led_2
   175   00189A  12                 	db	18
   176                           
   177                           ;initializer for _led_1
   178   00189B  02                 	db	2
   179                           
   180                           	psect	smallconst
   181   001000                     __psmallconst:
   182                           	callstack 0
   183   001000  00                 	db	0
   184   001001                     _keypad_btn_values:
   185                           	callstack 0
   186   001001  37                 	db	55
   187   001002  38                 	db	56
   188   001003  39                 	db	57
   189   001004  2F                 	db	47
   190   001005  34                 	db	52
   191   001006  35                 	db	53
   192   001007  36                 	db	54
   193   001008  2A                 	db	42
   194   001009  31                 	db	49
   195   00100A  32                 	db	50
   196   00100B  33                 	db	51
   197   00100C  2D                 	db	45
   198   00100D  23                 	db	35
   199   00100E  30                 	db	48
   200   00100F  3D                 	db	61
   201   001010  2B                 	db	43
   202   001011                     __end_of_keypad_btn_values:
   203                           	callstack 0
   204   000000                     _EECON2	set	4007
   205   000000                     _INTCON2bits	set	4081
   206   001011                     STR_1:
   207   001011  25                 	db	37
   208   001012  69                 	db	105	;'i'
   209   001013  00                 	db	0
   210   001014  00                 	db	0	; dummy byte at the end
   211   000000                     
   212                           	psect	nvCOMRAM
   213   000078                     __pnvCOMRAM:
   214                           	callstack 0
   215   000078                     _ret:
   216                           	callstack 0
   217   000078                     	ds	1
   218   000000                     _PORTBbits	set	3969
   219   000000                     _PORTE	set	3972
   220   000000                     _PORTD	set	3971
   221   000000                     _PORTC	set	3970
   222   000000                     _PORTB	set	3969
   223   000000                     _PORTA	set	3968
   224   000000                     _LATA	set	3977
   225   000000                     _TRISA	set	3986
   226   000000                     _EECON1bits	set	4006
   227   000000                     _EEDATA	set	4008
   228   000000                     _EEADR	set	4009
   229   000000                     _EEADRH	set	4010
   230   000000                     _INTCON3bits	set	4080
   231   000000                     _INTCONbits	set	4082
   232   000000                     _TRISE	set	3990
   233   000000                     _TRISD	set	3989
   234   000000                     _TRISC	set	3988
   235   000000                     _TRISB	set	3987
   236   000000                     _LATE	set	3981
   237   000000                     _LATD	set	3980
   238   000000                     _LATC	set	3979
   239   000000                     _LATB	set	3978
   240                           
   241                           ; #config settings
   242                           
   243                           	psect	cinit
   244   001918                     __pcinit:
   245                           	callstack 0
   246   001918                     start_initialization:
   247                           	callstack 0
   248   001918                     __initialization:
   249                           	callstack 0
   250                           
   251                           ; Initialize objects allocated to COMRAM (68 bytes)
   252                           ; load TBLPTR registers with __pidataCOMRAM
   253   001918  0E58               	movlw	low __pidataCOMRAM
   254   00191A  6EF6               	movwf	tblptrl,c
   255   00191C  0E18               	movlw	high __pidataCOMRAM
   256   00191E  6EF7               	movwf	tblptrh,c
   257   001920  0E00               	movlw	low (__pidataCOMRAM shr (0+16))
   258   001922  6EF8               	movwf	tblptru,c
   259   001924  EE00  F001         	lfsr	0,__pdataCOMRAM
   260   001928  EE10 F044          	lfsr	1,68
   261   00192C                     copy_data0:
   262   00192C  0009               	tblrd		*+
   263   00192E  CFF5 FFEE          	movff	tablat,postinc0
   264   001932  50E5               	movf	postdec1,w,c
   265   001934  50E1               	movf	fsr1l,w,c
   266   001936  E1FA               	bnz	copy_data0
   267                           
   268                           ; Clear objects allocated to COMRAM (30 bytes)
   269   001938  EE00  F045         	lfsr	0,__pbssCOMRAM
   270   00193C  0E1E               	movlw	30
   271   00193E                     clear_0:
   272   00193E  6AEE               	clrf	postinc0,c
   273   001940  06E8               	decf	wreg,f,c
   274   001942  E1FD               	bnz	clear_0
   275   001944                     end_of_initialization:
   276                           	callstack 0
   277   001944                     __end_of__initialization:
   278                           	callstack 0
   279   001944  9079               	bcf	int$flags,0,c	;clear compiler interrupt flag (level 1)
   280   001946  9279               	bcf	int$flags,1,c	;clear compiler interrupt flag (level 2)
   281   001948  0100               	movlb	0
   282   00194A  EF98  F00B         	goto	_main	;jump to C main() function
   283                           
   284                           	psect	bssCOMRAM
   285   000045                     __pbssCOMRAM:
   286                           	callstack 0
   287   000045                     _RB7_InterruptHandler_Low:
   288                           	callstack 0
   289   000045                     	ds	2
   290   000047                     _RB7_InterruptHandler_High:
   291                           	callstack 0
   292   000047                     	ds	2
   293   000049                     _RB6_InterruptHandler_Low:
   294                           	callstack 0
   295   000049                     	ds	2
   296   00004B                     _RB6_InterruptHandler_High:
   297                           	callstack 0
   298   00004B                     	ds	2
   299   00004D                     _RB5_InterruptHandler_Low:
   300                           	callstack 0
   301   00004D                     	ds	2
   302   00004F                     _RB5_InterruptHandler_High:
   303                           	callstack 0
   304   00004F                     	ds	2
   305   000051                     _RB4_InterruptHandler_Low:
   306                           	callstack 0
   307   000051                     	ds	2
   308   000053                     _RB4_InterruptHandler_High:
   309                           	callstack 0
   310   000053                     	ds	2
   311   000055                     _INT2_InterruptHandler:
   312                           	callstack 0
   313   000055                     	ds	2
   314   000057                     _INT1_InterruptHandler:
   315                           	callstack 0
   316   000057                     	ds	2
   317   000059                     _INT0_InterruptHandler:
   318                           	callstack 0
   319   000059                     	ds	2
   320   00005B                     _program_counter:
   321                           	callstack 0
   322   00005B                     	ds	1
   323   00005C                     relay_turn_off@F3052:
   324                           	callstack 0
   325   00005C                     	ds	1
   326   00005D                     relay_turn_on@F3047:
   327                           	callstack 0
   328   00005D                     	ds	1
   329   00005E                     relay_intialize@F3042:
   330                           	callstack 0
   331   00005E                     	ds	1
   332   00005F                     led_toggle@F3063:
   333                           	callstack 0
   334   00005F                     	ds	1
   335   000060                     led_turn_on@F3058:
   336                           	callstack 0
   337   000060                     	ds	1
   338   000061                     led_turn_off@F3053:
   339                           	callstack 0
   340   000061                     	ds	1
   341   000062                     led_intialize@F3048:
   342                           	callstack 0
   343   000062                     	ds	1
   344                           
   345                           	psect	dataCOMRAM
   346   000001                     __pdataCOMRAM:
   347                           	callstack 0
   348   000001                     _port_registers:
   349                           	callstack 0
   350   000001                     	ds	10
   351   00000B                     _lat_registers:
   352                           	callstack 0
   353   00000B                     	ds	10
   354   000015                     _tris_registers:
   355                           	callstack 0
   356   000015                     	ds	10
   357   00001F                     _lcd_2:
   358                           	callstack 0
   359   00001F                     	ds	10
   360   000029                     _keypad1:
   361                           	callstack 0
   362   000029                     	ds	8
   363   000031                     _int0_obj:
   364                           	callstack 0
   365   000031                     	ds	6
   366   000037                     _lcd_1:
   367                           	callstack 0
   368   000037                     	ds	6
   369   00003D                     _RB7_Flag:
   370                           	callstack 0
   371   00003D                     	ds	1
   372   00003E                     _RB6_Flag:
   373                           	callstack 0
   374   00003E                     	ds	1
   375   00003F                     _RB5_Flag:
   376                           	callstack 0
   377   00003F                     	ds	1
   378   000040                     _RB4_Flag:
   379                           	callstack 0
   380   000040                     	ds	1
   381   000041                     _led_4:
   382                           	callstack 0
   383   000041                     	ds	1
   384   000042                     _led_3:
   385                           	callstack 0
   386   000042                     	ds	1
   387   000043                     _led_2:
   388                           	callstack 0
   389   000043                     	ds	1
   390   000044                     _led_1:
   391                           	callstack 0
   392   000044                     	ds	1
   393                           
   394                           	psect	cstackBANK0
   395   000080                     __pcstackBANK0:
   396                           	callstack 0
   397   000080                     led_intialize@led:
   398                           	callstack 0
   399                           
   400                           ; 2 bytes @ 0x0
   401   000080                     	ds	2
   402   000082                     led_intialize@ret:
   403                           	callstack 0
   404                           
   405                           ; 1 bytes @ 0x2
   406   000082                     	ds	1
   407   000083                     led_intialize@pin_obj:
   408                           	callstack 0
   409                           
   410                           ; 1 bytes @ 0x3
   411   000083                     	ds	1
   412   000084                     ??_main:
   413                           
   414                           ; 1 bytes @ 0x4
   415   000084                     	ds	2
   416                           
   417                           	psect	cstackCOMRAM
   418   000063                     __pcstackCOMRAM:
   419                           	callstack 0
   420   000063                     RB4_ISR@RB4_source:
   421                           	callstack 0
   422   000063                     RB5_ISR@RB5_source:
   423                           	callstack 0
   424   000063                     RB6_ISR@RB6_source:
   425                           	callstack 0
   426   000063                     RB7_ISR@RB7_source:
   427                           	callstack 0
   428   000063                     Data_EEPROM_WriteByte@bAdd:
   429                           	callstack 0
   430                           
   431                           ; 2 bytes @ 0x0
   432   000063                     	ds	2
   433   000065                     Data_EEPROM_WriteByte@bData:
   434                           	callstack 0
   435                           
   436                           ; 1 bytes @ 0x2
   437   000065                     	ds	1
   438   000066                     Data_EEPROM_WriteByte@Data_Interrupts_Staus:
   439                           	callstack 0
   440                           
   441                           ; 1 bytes @ 0x3
   442   000066                     	ds	1
   443   000067                     ??_InterruptManger:
   444   000067                     
   445                           ; 1 bytes @ 0x4
   446   000067                     	ds	2
   447   000069                     gpio_pin_direction_initialize@_pin_config:
   448                           	callstack 0
   449   000069                     gpio_pin_write_logic@_pin_config:
   450                           	callstack 0
   451   000069                     gpio_pin_toggle_logic@_pin_config:
   452                           	callstack 0
   453   000069                     Data_EEPROM_ReadByte@bAdd:
   454                           	callstack 0
   455                           
   456                           ; 2 bytes @ 0x6
   457   000069                     	ds	2
   458   00006B                     ??_gpio_pin_direction_initialize:
   459   00006B                     ??_gpio_pin_toggle_logic:
   460   00006B                     gpio_pin_write_logic@logic:
   461                           	callstack 0
   462   00006B                     Data_EEPROM_ReadByte@bData:
   463                           	callstack 0
   464                           
   465                           ; 2 bytes @ 0x8
   466   00006B                     	ds	1
   467   00006C                     ??_gpio_pin_write_logic:
   468                           
   469                           ; 1 bytes @ 0x9
   470   00006C                     	ds	1
   471   00006D                     Data_EEPROM_ReadByte@ret:
   472                           	callstack 0
   473                           
   474                           ; 1 bytes @ 0xA
   475   00006D                     	ds	3
   476   000070                     gpio_pin_toggle_logic@ret:
   477                           	callstack 0
   478                           
   479                           ; 1 bytes @ 0xD
   480   000070                     	ds	1
   481   000071                     gpio_pin_direction_initialize@ret:
   482                           	callstack 0
   483   000071                     led_toggle@led:
   484                           	callstack 0
   485                           
   486                           ; 2 bytes @ 0xE
   487   000071                     	ds	1
   488   000072                     gpio_pin_write_logic@ret:
   489                           	callstack 0
   490                           
   491                           ; 1 bytes @ 0xF
   492   000072                     	ds	1
   493   000073                     ??_led_toggle:
   494   000073                     led_turn_off@led:
   495                           	callstack 0
   496   000073                     gpio_pin_initialize@_pin_config:
   497                           	callstack 0
   498                           
   499                           ; 2 bytes @ 0x10
   500   000073                     	ds	1
   501   000074                     led_toggle@ret:
   502                           	callstack 0
   503                           
   504                           ; 1 bytes @ 0x11
   505   000074                     	ds	1
   506   000075                     ??_gpio_pin_initialize:
   507   000075                     ??_led_turn_off:
   508   000075                     led_toggle@pin_obj:
   509                           	callstack 0
   510                           
   511                           ; 1 bytes @ 0x12
   512   000075                     	ds	1
   513   000076                     ??_program1:
   514   000076                     ??_program2:
   515   000076                     led_turn_off@ret:
   516                           	callstack 0
   517   000076                     gpio_pin_initialize@ret:
   518                           	callstack 0
   519                           
   520                           ; 1 bytes @ 0x13
   521   000076                     	ds	1
   522   000077                     ??_led_intialize:
   523   000077                     led_turn_off@pin_obj:
   524                           	callstack 0
   525                           
   526                           ; 1 bytes @ 0x14
   527   000077                     	ds	1
   528   000078                     
   529                           ; 1 bytes @ 0x15
   530 ;;
   531 ;;Main: autosize = 0, tempsize = 2, incstack = 0, save=0
   532 ;;
   533 ;; *************** function _main *****************
   534 ;; Defined at:
   535 ;;		line 42 in file "application.c"
   536 ;; Parameters:    Size  Location     Type
   537 ;;		None
   538 ;; Auto vars:     Size  Location     Type
   539 ;;		None
   540 ;; Return value:  Size  Location     Type
   541 ;;                  2  761[None  ] int 
   542 ;; Registers used:
   543 ;;		wreg, fsr2l, fsr2h, status,2, status,0, prodl, prodh, cstack
   544 ;; Tracked objects:
   545 ;;		On entry : 0/0
   546 ;;		On exit  : 0/0
   547 ;;		Unchanged: 0/0
   548 ;; Data sizes:     COMRAM   BANK0   BANK1   BANK2   BANK3   BANK4   BANK5   BANK6   BANK7   BANK8   BANK9  BANK10  BANK1
      +1  BANK12  BANK13  BANK14  BANK15
   549 ;;      Params:         0       0       0       0       0       0       0       0       0       0       0       0       
      +0       0       0       0       0
   550 ;;      Locals:         0       0       0       0       0       0       0       0       0       0       0       0       
      +0       0       0       0       0
   551 ;;      Temps:          0       2       0       0       0       0       0       0       0       0       0       0       
      +0       0       0       0       0
   552 ;;      Totals:         0       2       0       0       0       0       0       0       0       0       0       0       
      +0       0       0       0       0
   553 ;;Total ram usage:        2 bytes
   554 ;; Hardware stack levels required when called: 9
   555 ;; This function calls:
   556 ;;		_Data_EEPROM_ReadByte
   557 ;;		_application_initialize
   558 ;;		_led_turn_off
   559 ;;		_program1
   560 ;;		_program2
   561 ;; This function is called by:
   562 ;;		Startup code after reset
   563 ;; This function uses a non-reentrant model
   564 ;;
   565                           
   566                           	psect	text0
   567   001730                     __ptext0:
   568                           	callstack 0
   569   001730                     _main:
   570                           	callstack 22
   571   001730                     
   572                           ;application.c: 43:     application_initialize();
   573   001730  EC27  F00D         	call	_application_initialize	;wreg free
   574   001734                     
   575                           ;application.c: 45:     ret = Data_EEPROM_ReadByte(0x3ff, program_counter);
   576   001734  0E03               	movlw	3
   577   001736  6E6A               	movwf	(Data_EEPROM_ReadByte@bAdd+1)^0,c
   578   001738  6869               	setf	Data_EEPROM_ReadByte@bAdd^0,c
   579   00173A  505B               	movf	_program_counter^0,w,c	;volatile
   580   00173C  0100               	movlb	0	; () banked
   581   00173E  6F84               	movwf	??_main& (0+255),b
   582   001740  6B85               	clrf	(??_main+1)& (0+255),b
   583   001742  C084  F06B         	movff	??_main,Data_EEPROM_ReadByte@bData
   584   001746  C085  F06C         	movff	??_main+1,Data_EEPROM_ReadByte@bData+1
   585   00174A  EC4E  F00C         	call	_Data_EEPROM_ReadByte	;wreg free
   586   00174E  6E78               	movwf	_ret^0,c
   587   001750                     l4646:
   588                           
   589                           ;application.c: 48:         if(1 == program_counter){
   590   001750  045B               	decf	_program_counter^0,w,c	;volatile
   591   001752  A4D8               	btfss	status,2,c
   592   001754  EFAE  F00B         	goto	u3711
   593   001758  EFB0  F00B         	goto	u3710
   594   00175C                     u3711:
   595   00175C  EFB4  F00B         	goto	l4650
   596   001760                     u3710:
   597   001760                     
   598                           ;application.c: 49:             program1();
   599   001760  EC14  F00D         	call	_program1	;wreg free
   600                           
   601                           ;application.c: 50:         }
   602   001764  EFA8  F00B         	goto	l4646
   603   001768                     l4650:
   604   001768  0E02               	movlw	2
   605   00176A  185B               	xorwf	_program_counter^0,w,c	;volatile
   606   00176C  A4D8               	btfss	status,2,c
   607   00176E  EFBB  F00B         	goto	u3721
   608   001772  EFBD  F00B         	goto	u3720
   609   001776                     u3721:
   610   001776  EFC1  F00B         	goto	l4654
   611   00177A                     u3720:
   612   00177A                     
   613                           ;application.c: 52:             program2();
   614   00177A  EC01  F00D         	call	_program2	;wreg free
   615                           
   616                           ;application.c: 53:         }
   617   00177E  EFA8  F00B         	goto	l4646
   618   001782                     l4654:
   619                           
   620                           ;application.c: 55:             ret = led_turn_off(&led_1);
   621   001782  0E44               	movlw	low _led_1
   622   001784  6E73               	movwf	led_turn_off@led^0,c
   623   001786  0E00               	movlw	high _led_1
   624   001788  6E74               	movwf	(led_turn_off@led+1)^0,c
   625   00178A  EC1C  F00B         	call	_led_turn_off	;wreg free
   626   00178E  6E78               	movwf	_ret^0,c
   627                           
   628                           ;application.c: 56:             ret = led_turn_off(&led_2);
   629   001790  0E43               	movlw	low _led_2
   630   001792  6E73               	movwf	led_turn_off@led^0,c
   631   001794  0E00               	movlw	high _led_2
   632   001796  6E74               	movwf	(led_turn_off@led+1)^0,c
   633   001798  EC1C  F00B         	call	_led_turn_off	;wreg free
   634   00179C  6E78               	movwf	_ret^0,c
   635   00179E  EFA8  F00B         	goto	l4646
   636   0017A2  EF07  F000         	goto	start
   637   0017A6                     __end_of_main:
   638                           	callstack 0
   639                           
   640 ;; *************** function _program2 *****************
   641 ;; Defined at:
   642 ;;		line 26 in file "application.c"
   643 ;; Parameters:    Size  Location     Type
   644 ;;		None
   645 ;; Auto vars:     Size  Location     Type
   646 ;;		None
   647 ;; Return value:  Size  Location     Type
   648 ;;                  1    wreg      void 
   649 ;; Registers used:
   650 ;;		wreg, fsr2l, fsr2h, status,2, status,0, prodl, prodh, cstack
   651 ;; Tracked objects:
   652 ;;		On entry : 0/0
   653 ;;		On exit  : 0/0
   654 ;;		Unchanged: 0/0
   655 ;; Data sizes:     COMRAM   BANK0   BANK1   BANK2   BANK3   BANK4   BANK5   BANK6   BANK7   BANK8   BANK9  BANK10  BANK1
      +1  BANK12  BANK13  BANK14  BANK15
   656 ;;      Params:         0       0       0       0       0       0       0       0       0       0       0       0       
      +0       0       0       0       0
   657 ;;      Locals:         0       0       0       0       0       0       0       0       0       0       0       0       
      +0       0       0       0       0
   658 ;;      Temps:          2       0       0       0       0       0       0       0       0       0       0       0       
      +0       0       0       0       0
   659 ;;      Totals:         2       0       0       0       0       0       0       0       0       0       0       0       
      +0       0       0       0       0
   660 ;;Total ram usage:        2 bytes
   661 ;; Hardware stack levels used: 1
   662 ;; Hardware stack levels required when called: 6
   663 ;; This function calls:
   664 ;;		_led_toggle
   665 ;; This function is called by:
   666 ;;		_main
   667 ;; This function uses a non-reentrant model
   668 ;;
   669                           
   670                           	psect	text1
   671   001A02                     __ptext1:
   672                           	callstack 0
   673   001A02                     _program2:
   674                           	callstack 24
   675   001A02                     
   676                           ;application.c: 27:     ret = led_toggle(&led_2);
   677   001A02  0E43               	movlw	low _led_2
   678   001A04  6E71               	movwf	led_toggle@led^0,c
   679   001A06  0E00               	movlw	high _led_2
   680   001A08  6E72               	movwf	(led_toggle@led+1)^0,c
   681   001A0A  EC5B  F00B         	call	_led_toggle	;wreg free
   682   001A0E  6E78               	movwf	_ret^0,c
   683   001A10                     
   684                           ;application.c: 28:     _delay((unsigned long)((250)*(8000000UL/4000.0)));
   685   001A10  0E03               	movlw	3
   686   001A12  6E77               	movwf	(??_program2+1)^0,c
   687   001A14  0E8A               	movlw	138
   688   001A16  6E76               	movwf	??_program2^0,c
   689   001A18  0E56               	movlw	86
   690   001A1A                     u3737:
   691   001A1A  2EE8               	decfsz	wreg,f,c
   692   001A1C  D7FE               	bra	u3737
   693   001A1E  2E76               	decfsz	??_program2^0,f,c
   694   001A20  D7FC               	bra	u3737
   695   001A22  2E77               	decfsz	(??_program2+1)^0,f,c
   696   001A24  D7FA               	bra	u3737
   697   001A26  0012               	return		;funcret
   698   001A28                     __end_of_program2:
   699                           	callstack 0
   700                           
   701 ;; *************** function _program1 *****************
   702 ;; Defined at:
   703 ;;		line 22 in file "application.c"
   704 ;; Parameters:    Size  Location     Type
   705 ;;		None
   706 ;; Auto vars:     Size  Location     Type
   707 ;;		None
   708 ;; Return value:  Size  Location     Type
   709 ;;                  1    wreg      void 
   710 ;; Registers used:
   711 ;;		wreg, fsr2l, fsr2h, status,2, status,0, prodl, prodh, cstack
   712 ;; Tracked objects:
   713 ;;		On entry : 0/0
   714 ;;		On exit  : 0/0
   715 ;;		Unchanged: 0/0
   716 ;; Data sizes:     COMRAM   BANK0   BANK1   BANK2   BANK3   BANK4   BANK5   BANK6   BANK7   BANK8   BANK9  BANK10  BANK1
      +1  BANK12  BANK13  BANK14  BANK15
   717 ;;      Params:         0       0       0       0       0       0       0       0       0       0       0       0       
      +0       0       0       0       0
   718 ;;      Locals:         0       0       0       0       0       0       0       0       0       0       0       0       
      +0       0       0       0       0
   719 ;;      Temps:          2       0       0       0       0       0       0       0       0       0       0       0       
      +0       0       0       0       0
   720 ;;      Totals:         2       0       0       0       0       0       0       0       0       0       0       0       
      +0       0       0       0       0
   721 ;;Total ram usage:        2 bytes
   722 ;; Hardware stack levels used: 1
   723 ;; Hardware stack levels required when called: 6
   724 ;; This function calls:
   725 ;;		_led_toggle
   726 ;; This function is called by:
   727 ;;		_main
   728 ;; This function uses a non-reentrant model
   729 ;;
   730                           
   731                           	psect	text2
   732   001A28                     __ptext2:
   733                           	callstack 0
   734   001A28                     _program1:
   735                           	callstack 24
   736   001A28                     
   737                           ;application.c: 23:     ret = led_toggle(&led_1);
   738   001A28  0E44               	movlw	low _led_1
   739   001A2A  6E71               	movwf	led_toggle@led^0,c
   740   001A2C  0E00               	movlw	high _led_1
   741   001A2E  6E72               	movwf	(led_toggle@led+1)^0,c
   742   001A30  EC5B  F00B         	call	_led_toggle	;wreg free
   743   001A34  6E78               	movwf	_ret^0,c
   744   001A36                     
   745                           ;application.c: 24:     _delay((unsigned long)((250)*(8000000UL/4000.0)));
   746   001A36  0E03               	movlw	3
   747   001A38  6E77               	movwf	(??_program1+1)^0,c
   748   001A3A  0E8A               	movlw	138
   749   001A3C  6E76               	movwf	??_program1^0,c
   750   001A3E  0E56               	movlw	86
   751   001A40                     u3747:
   752   001A40  2EE8               	decfsz	wreg,f,c
   753   001A42  D7FE               	bra	u3747
   754   001A44  2E76               	decfsz	??_program1^0,f,c
   755   001A46  D7FC               	bra	u3747
   756   001A48  2E77               	decfsz	(??_program1+1)^0,f,c
   757   001A4A  D7FA               	bra	u3747
   758   001A4C  0012               	return		;funcret
   759   001A4E                     __end_of_program1:
   760                           	callstack 0
   761                           
   762 ;; *************** function _led_toggle *****************
   763 ;; Defined at:
   764 ;;		line 81 in file "ECU_Layer/LED/ecu_led.c"
   765 ;; Parameters:    Size  Location     Type
   766 ;;  led             2   14[COMRAM] PTR const struct .
   767 ;;		 -> led_2(1), led_1(1), 
   768 ;; Auto vars:     Size  Location     Type
   769 ;;  pin_obj         1   18[COMRAM] struct .
   770 ;;  ret             1   17[COMRAM] unsigned char 
   771 ;; Return value:  Size  Location     Type
   772 ;;                  1    wreg      unsigned char 
   773 ;; Registers used:
   774 ;;		wreg, fsr2l, fsr2h, status,2, status,0, prodl, prodh, cstack
   775 ;; Tracked objects:
   776 ;;		On entry : 0/0
   777 ;;		On exit  : 0/0
   778 ;;		Unchanged: 0/0
   779 ;; Data sizes:     COMRAM   BANK0   BANK1   BANK2   BANK3   BANK4   BANK5   BANK6   BANK7   BANK8   BANK9  BANK10  BANK1
      +1  BANK12  BANK13  BANK14  BANK15
   780 ;;      Params:         2       0       0       0       0       0       0       0       0       0       0       0       
      +0       0       0       0       0
   781 ;;      Locals:         2       0       0       0       0       0       0       0       0       0       0       0       
      +0       0       0       0       0
   782 ;;      Temps:          1       0       0       0       0       0       0       0       0       0       0       0       
      +0       0       0       0       0
   783 ;;      Totals:         5       0       0       0       0       0       0       0       0       0       0       0       
      +0       0       0       0       0
   784 ;;Total ram usage:        5 bytes
   785 ;; Hardware stack levels used: 1
   786 ;; Hardware stack levels required when called: 5
   787 ;; This function calls:
   788 ;;		_gpio_pin_toggle_logic
   789 ;; This function is called by:
   790 ;;		_program1
   791 ;;		_program2
   792 ;; This function uses a non-reentrant model
   793 ;;
   794                           
   795                           	psect	text3
   796   0016B6                     __ptext3:
   797                           	callstack 0
   798   0016B6                     _led_toggle:
   799                           	callstack 24
   800   0016B6                     
   801                           ;ECU_Layer/LED/ecu_led.c: 83:     if(((void*)0) == led)
   802   0016B6  5071               	movf	led_toggle@led^0,w,c
   803   0016B8  1072               	iorwf	(led_toggle@led+1)^0,w,c
   804   0016BA  A4D8               	btfss	status,2,c
   805   0016BC  EF62  F00B         	goto	u1941
   806   0016C0  EF64  F00B         	goto	u1940
   807   0016C4                     u1941:
   808   0016C4  EF68  F00B         	goto	l283
   809   0016C8                     u1940:
   810   0016C8                     
   811                           ;ECU_Layer/LED/ecu_led.c: 84:     {;ECU_Layer/LED/ecu_led.c: 85:         ret = (Std_Retu
      +                          rnType)0x00;
   812   0016C8  0E00               	movlw	0
   813   0016CA  6E74               	movwf	led_toggle@ret^0,c
   814                           
   815                           ;ECU_Layer/LED/ecu_led.c: 86:     }
   816   0016CC  EF96  F00B         	goto	l3084
   817   0016D0                     l283:
   818                           
   819                           ;ECU_Layer/LED/ecu_led.c: 88:          pin_config_t pin_obj = {
   820   0016D0  C05F  F075         	movff	led_toggle@F3063,led_toggle@pin_obj
   821   0016D4  C071  FFD9         	movff	led_toggle@led,fsr2l
   822   0016D8  C072  FFDA         	movff	led_toggle@led+1,fsr2h
   823   0016DC  50DF               	movf	223,w,c
   824   0016DE  0B0F               	andlw	15
   825   0016E0  6E73               	movwf	??_led_toggle^0,c
   826   0016E2  5075               	movf	led_toggle@pin_obj^0,w,c
   827   0016E4  1873               	xorwf	??_led_toggle^0,w,c
   828   0016E6  0BF8               	andlw	-8
   829   0016E8  1873               	xorwf	??_led_toggle^0,w,c
   830   0016EA  6E75               	movwf	led_toggle@pin_obj^0,c
   831   0016EC  C071  FFD9         	movff	led_toggle@led,fsr2l
   832   0016F0  C072  FFDA         	movff	led_toggle@led+1,fsr2h
   833   0016F4  38DF               	swapf	223,w,c
   834   0016F6  0B07               	andlw	7
   835   0016F8  6E73               	movwf	??_led_toggle^0,c
   836   0016FA  4673               	rlncf	??_led_toggle^0,f,c
   837   0016FC  4673               	rlncf	??_led_toggle^0,f,c
   838   0016FE  4673               	rlncf	??_led_toggle^0,f,c
   839   001700  5075               	movf	led_toggle@pin_obj^0,w,c
   840   001702  1873               	xorwf	??_led_toggle^0,w,c
   841   001704  0BC7               	andlw	-57
   842   001706  1873               	xorwf	??_led_toggle^0,w,c
   843   001708  6E75               	movwf	led_toggle@pin_obj^0,c
   844   00170A  9C75               	bcf	led_toggle@pin_obj^0,6,c
   845   00170C  C071  FFD9         	movff	led_toggle@led,fsr2l
   846   001710  C072  FFDA         	movff	led_toggle@led+1,fsr2h
   847   001714  AEDF               	btfss	indf2,7,c
   848   001716  D002               	bra	u1955
   849   001718  8E75               	bsf	led_toggle@pin_obj^0,7,c
   850   00171A  D001               	bra	u1957
   851   00171C                     u1955:
   852   00171C  9E75               	bcf	led_toggle@pin_obj^0,7,c
   853   00171E                     u1957:
   854   00171E                     
   855                           ;ECU_Layer/LED/ecu_led.c: 94:         ret = gpio_pin_toggle_logic(&pin_obj);
   856   00171E  0E75               	movlw	low led_toggle@pin_obj
   857   001720  6E69               	movwf	gpio_pin_toggle_logic@_pin_config^0,c
   858   001722  0E00               	movlw	high led_toggle@pin_obj
   859   001724  6E6A               	movwf	(gpio_pin_toggle_logic@_pin_config+1)^0,c
   860   001726  EC8E  F00A         	call	_gpio_pin_toggle_logic	;wreg free
   861   00172A  6E74               	movwf	led_toggle@ret^0,c
   862   00172C                     l3084:
   863                           
   864                           ;ECU_Layer/LED/ecu_led.c: 96:     return ret;
   865   00172C  5074               	movf	led_toggle@ret^0,w,c
   866   00172E  0012               	return		;funcret
   867   001730                     __end_of_led_toggle:
   868                           	callstack 0
   869                           
   870 ;; *************** function _gpio_pin_toggle_logic *****************
   871 ;; Defined at:
   872 ;;		line 115 in file "MCAL_Layer/GPIO/hal_gpio.c"
   873 ;; Parameters:    Size  Location     Type
   874 ;;  _pin_config     2    6[COMRAM] PTR const struct .
   875 ;;		 -> led_toggle@pin_obj(1), 
   876 ;; Auto vars:     Size  Location     Type
   877 ;;  ret             1   13[COMRAM] unsigned char 
   878 ;; Return value:  Size  Location     Type
   879 ;;                  1    wreg      unsigned char 
   880 ;; Registers used:
   881 ;;		wreg, fsr2l, fsr2h, status,2, status,0, prodl, prodh
   882 ;; Tracked objects:
   883 ;;		On entry : 0/0
   884 ;;		On exit  : 0/0
   885 ;;		Unchanged: 0/0
   886 ;; Data sizes:     COMRAM   BANK0   BANK1   BANK2   BANK3   BANK4   BANK5   BANK6   BANK7   BANK8   BANK9  BANK10  BANK1
      +1  BANK12  BANK13  BANK14  BANK15
   887 ;;      Params:         2       0       0       0       0       0       0       0       0       0       0       0       
      +0       0       0       0       0
   888 ;;      Locals:         1       0       0       0       0       0       0       0       0       0       0       0       
      +0       0       0       0       0
   889 ;;      Temps:          5       0       0       0       0       0       0       0       0       0       0       0       
      +0       0       0       0       0
   890 ;;      Totals:         8       0       0       0       0       0       0       0       0       0       0       0       
      +0       0       0       0       0
   891 ;;Total ram usage:        8 bytes
   892 ;; Hardware stack levels used: 1
   893 ;; Hardware stack levels required when called: 4
   894 ;; This function calls:
   895 ;;		Nothing
   896 ;; This function is called by:
   897 ;;		_led_toggle
   898 ;; This function uses a non-reentrant model
   899 ;;
   900                           
   901                           	psect	text4
   902   00151C                     __ptext4:
   903                           	callstack 0
   904   00151C                     _gpio_pin_toggle_logic:
   905                           	callstack 24
   906   00151C                     
   907                           ;MCAL_Layer/GPIO/hal_gpio.c: 116:     Std_ReturnType ret = (Std_ReturnType)0x01;
   908   00151C  0E01               	movlw	1
   909   00151E  6E70               	movwf	gpio_pin_toggle_logic@ret^0,c
   910   001520                     
   911                           ;MCAL_Layer/GPIO/hal_gpio.c: 117:     if(((void*)0) == _pin_config || (_pin_config->pin 
      +                          > 8 -1)){
   912   001520  5069               	movf	gpio_pin_toggle_logic@_pin_config^0,w,c
   913   001522  106A               	iorwf	(gpio_pin_toggle_logic@_pin_config+1)^0,w,c
   914   001524  B4D8               	btfsc	status,2,c
   915   001526  EF97  F00A         	goto	u1821
   916   00152A  EF99  F00A         	goto	u1820
   917   00152E                     u1821:
   918   00152E  EFAA  F00A         	goto	l2952
   919   001532                     u1820:
   920   001532  C069  FFD9         	movff	gpio_pin_toggle_logic@_pin_config,fsr2l
   921   001536  C06A  FFDA         	movff	gpio_pin_toggle_logic@_pin_config+1,fsr2h
   922   00153A  30DF               	rrcf	223,w,c
   923   00153C  32E8               	rrcf	wreg,f,c
   924   00153E  32E8               	rrcf	wreg,f,c
   925   001540  0B07               	andlw	7
   926   001542  6E6B               	movwf	??_gpio_pin_toggle_logic^0,c
   927   001544  0E07               	movlw	7
   928   001546  646B               	cpfsgt	??_gpio_pin_toggle_logic^0,c
   929   001548  EFA8  F00A         	goto	u1831
   930   00154C  EFAA  F00A         	goto	u1830
   931   001550                     u1831:
   932   001550  EFAE  F00A         	goto	l2954
   933   001554                     u1830:
   934   001554                     l2952:
   935                           
   936                           ;MCAL_Layer/GPIO/hal_gpio.c: 118:         ret = (Std_ReturnType)0x00;
   937   001554  0E00               	movlw	0
   938   001556  6E70               	movwf	gpio_pin_toggle_logic@ret^0,c
   939                           
   940                           ;MCAL_Layer/GPIO/hal_gpio.c: 119:     }
   941   001558  EFDA  F00A         	goto	l2956
   942   00155C                     l2954:
   943                           
   944                           ;MCAL_Layer/GPIO/hal_gpio.c: 121:         ((*lat_registers[_pin_config->port]) ^= ((uint
      +                          8)0x01 << (_pin_config->pin)));
   945   00155C  C069  FFD9         	movff	gpio_pin_toggle_logic@_pin_config,fsr2l
   946   001560  C06A  FFDA         	movff	gpio_pin_toggle_logic@_pin_config+1,fsr2h
   947   001564  30DF               	rrcf	223,w,c
   948   001566  32E8               	rrcf	wreg,f,c
   949   001568  32E8               	rrcf	wreg,f,c
   950   00156A  0B07               	andlw	7
   951   00156C  6E6B               	movwf	??_gpio_pin_toggle_logic^0,c
   952   00156E  0E01               	movlw	1
   953   001570  6E6C               	movwf	(??_gpio_pin_toggle_logic+1)^0,c
   954   001572  2A6B               	incf	??_gpio_pin_toggle_logic^0,f,c
   955   001574  EFBE  F00A         	goto	u1844
   956   001578                     u1845:
   957   001578  90D8               	bcf	status,0,c
   958   00157A  366C               	rlcf	(??_gpio_pin_toggle_logic+1)^0,f,c
   959   00157C                     u1844:
   960   00157C  2E6B               	decfsz	??_gpio_pin_toggle_logic^0,f,c
   961   00157E  EFBC  F00A         	goto	u1845
   962   001582  C069  FFD9         	movff	gpio_pin_toggle_logic@_pin_config,fsr2l
   963   001586  C06A  FFDA         	movff	gpio_pin_toggle_logic@_pin_config+1,fsr2h
   964   00158A  50DF               	movf	223,w,c
   965   00158C  0B07               	andlw	7
   966   00158E  6E6D               	movwf	(??_gpio_pin_toggle_logic+2)^0,c
   967   001590  506D               	movf	(??_gpio_pin_toggle_logic+2)^0,w,c
   968   001592  0D02               	mullw	2
   969   001594  0E0B               	movlw	low _lat_registers
   970   001596  24F3               	addwf	243,w,c
   971   001598  6ED9               	movwf	fsr2l,c
   972   00159A  0E00               	movlw	high _lat_registers
   973   00159C  20F4               	addwfc	prodh,w,c
   974   00159E  6EDA               	movwf	fsr2h,c
   975   0015A0  CFDE F06E          	movff	postinc2,??_gpio_pin_toggle_logic+3
   976   0015A4  CFDD F06F          	movff	postdec2,??_gpio_pin_toggle_logic+4
   977   0015A8  C06E  FFD9         	movff	??_gpio_pin_toggle_logic+3,fsr2l
   978   0015AC  C06F  FFDA         	movff	??_gpio_pin_toggle_logic+4,fsr2h
   979   0015B0  506C               	movf	(??_gpio_pin_toggle_logic+1)^0,w,c
   980   0015B2  1ADF               	xorwf	indf2,f,c
   981   0015B4                     l2956:
   982                           
   983                           ;MCAL_Layer/GPIO/hal_gpio.c: 123:     return ret;
   984   0015B4  5070               	movf	gpio_pin_toggle_logic@ret^0,w,c
   985   0015B6  0012               	return		;funcret
   986   0015B8                     __end_of_gpio_pin_toggle_logic:
   987                           	callstack 0
   988                           
   989 ;; *************** function _led_turn_off *****************
   990 ;; Defined at:
   991 ;;		line 37 in file "ECU_Layer/LED/ecu_led.c"
   992 ;; Parameters:    Size  Location     Type
   993 ;;  led             2   16[COMRAM] PTR const struct .
   994 ;;		 -> led_2(1), led_1(1), 
   995 ;; Auto vars:     Size  Location     Type
   996 ;;  pin_obj         1   20[COMRAM] struct .
   997 ;;  ret             1   19[COMRAM] unsigned char 
   998 ;; Return value:  Size  Location     Type
   999 ;;                  1    wreg      unsigned char 
  1000 ;; Registers used:
  1001 ;;		wreg, fsr2l, fsr2h, status,2, status,0, prodl, prodh, cstack
  1002 ;; Tracked objects:
  1003 ;;		On entry : 0/0
  1004 ;;		On exit  : 0/0
  1005 ;;		Unchanged: 0/0
  1006 ;; Data sizes:     COMRAM   BANK0   BANK1   BANK2   BANK3   BANK4   BANK5   BANK6   BANK7   BANK8   BANK9  BANK10  BANK1
      +1  BANK12  BANK13  BANK14  BANK15
  1007 ;;      Params:         2       0       0       0       0       0       0       0       0       0       0       0       
      +0       0       0       0       0
  1008 ;;      Locals:         2       0       0       0       0       0       0       0       0       0       0       0       
      +0       0       0       0       0
  1009 ;;      Temps:          1       0       0       0       0       0       0       0       0       0       0       0       
      +0       0       0       0       0
  1010 ;;      Totals:         5       0       0       0       0       0       0       0       0       0       0       0       
      +0       0       0       0       0
  1011 ;;Total ram usage:        5 bytes
  1012 ;; Hardware stack levels used: 1
  1013 ;; Hardware stack levels required when called: 5
  1014 ;; This function calls:
  1015 ;;		_gpio_pin_write_logic
  1016 ;; This function is called by:
  1017 ;;		_main
  1018 ;; This function uses a non-reentrant model
  1019 ;;
  1020                           
  1021                           	psect	text5
  1022   001638                     __ptext5:
  1023                           	callstack 0
  1024   001638                     _led_turn_off:
  1025                           	callstack 25
  1026   001638                     
  1027                           ;ECU_Layer/LED/ecu_led.c: 39:     if(((void*)0) == led)
  1028   001638  5073               	movf	led_turn_off@led^0,w,c
  1029   00163A  1074               	iorwf	(led_turn_off@led+1)^0,w,c
  1030   00163C  A4D8               	btfss	status,2,c
  1031   00163E  EF23  F00B         	goto	u3241
  1032   001642  EF25  F00B         	goto	u3240
  1033   001646                     u3241:
  1034   001646  EF29  F00B         	goto	l269
  1035   00164A                     u3240:
  1036   00164A                     
  1037                           ;ECU_Layer/LED/ecu_led.c: 40:     {;ECU_Layer/LED/ecu_led.c: 41:         ret = (Std_Retu
      +                          rnType)0x00;
  1038   00164A  0E00               	movlw	0
  1039   00164C  6E76               	movwf	led_turn_off@ret^0,c
  1040                           
  1041                           ;ECU_Layer/LED/ecu_led.c: 42:     }
  1042   00164E  EF59  F00B         	goto	l4120
  1043   001652                     l269:
  1044                           
  1045                           ;ECU_Layer/LED/ecu_led.c: 44:          pin_config_t pin_obj = {
  1046   001652  C061  F077         	movff	led_turn_off@F3053,led_turn_off@pin_obj
  1047   001656  C073  FFD9         	movff	led_turn_off@led,fsr2l
  1048   00165A  C074  FFDA         	movff	led_turn_off@led+1,fsr2h
  1049   00165E  50DF               	movf	223,w,c
  1050   001660  0B0F               	andlw	15
  1051   001662  6E75               	movwf	??_led_turn_off^0,c
  1052   001664  5077               	movf	led_turn_off@pin_obj^0,w,c
  1053   001666  1875               	xorwf	??_led_turn_off^0,w,c
  1054   001668  0BF8               	andlw	-8
  1055   00166A  1875               	xorwf	??_led_turn_off^0,w,c
  1056   00166C  6E77               	movwf	led_turn_off@pin_obj^0,c
  1057   00166E  C073  FFD9         	movff	led_turn_off@led,fsr2l
  1058   001672  C074  FFDA         	movff	led_turn_off@led+1,fsr2h
  1059   001676  38DF               	swapf	223,w,c
  1060   001678  0B07               	andlw	7
  1061   00167A  6E75               	movwf	??_led_turn_off^0,c
  1062   00167C  4675               	rlncf	??_led_turn_off^0,f,c
  1063   00167E  4675               	rlncf	??_led_turn_off^0,f,c
  1064   001680  4675               	rlncf	??_led_turn_off^0,f,c
  1065   001682  5077               	movf	led_turn_off@pin_obj^0,w,c
  1066   001684  1875               	xorwf	??_led_turn_off^0,w,c
  1067   001686  0BC7               	andlw	-57
  1068   001688  1875               	xorwf	??_led_turn_off^0,w,c
  1069   00168A  6E77               	movwf	led_turn_off@pin_obj^0,c
  1070   00168C  9C77               	bcf	led_turn_off@pin_obj^0,6,c
  1071   00168E  C073  FFD9         	movff	led_turn_off@led,fsr2l
  1072   001692  C074  FFDA         	movff	led_turn_off@led+1,fsr2h
  1073   001696  AEDF               	btfss	indf2,7,c
  1074   001698  D002               	bra	u3255
  1075   00169A  8E77               	bsf	led_turn_off@pin_obj^0,7,c
  1076   00169C  D001               	bra	u3257
  1077   00169E                     u3255:
  1078   00169E  9E77               	bcf	led_turn_off@pin_obj^0,7,c
  1079   0016A0                     u3257:
  1080   0016A0                     
  1081                           ;ECU_Layer/LED/ecu_led.c: 50:         ret = gpio_pin_write_logic(&pin_obj, GPIO_LOW);
  1082   0016A0  0E77               	movlw	low led_turn_off@pin_obj
  1083   0016A2  6E69               	movwf	gpio_pin_write_logic@_pin_config^0,c
  1084   0016A4  0E00               	movlw	high led_turn_off@pin_obj
  1085   0016A6  6E6A               	movwf	(gpio_pin_write_logic@_pin_config+1)^0,c
  1086   0016A8  0E00               	movlw	0
  1087   0016AA  6E6B               	movwf	gpio_pin_write_logic@logic^0,c
  1088   0016AC  ECF8  F009         	call	_gpio_pin_write_logic	;wreg free
  1089   0016B0  6E76               	movwf	led_turn_off@ret^0,c
  1090   0016B2                     l4120:
  1091                           
  1092                           ;ECU_Layer/LED/ecu_led.c: 52:     return ret;
  1093   0016B2  5076               	movf	led_turn_off@ret^0,w,c
  1094   0016B4  0012               	return		;funcret
  1095   0016B6                     __end_of_led_turn_off:
  1096                           	callstack 0
  1097                           
  1098 ;; *************** function _application_initialize *****************
  1099 ;; Defined at:
  1100 ;;		line 63 in file "application.c"
  1101 ;; Parameters:    Size  Location     Type
  1102 ;;		None
  1103 ;; Auto vars:     Size  Location     Type
  1104 ;;		None
  1105 ;; Return value:  Size  Location     Type
  1106 ;;                  1    wreg      void 
  1107 ;; Registers used:
  1108 ;;		wreg, fsr2l, fsr2h, status,2, status,0, prodl, prodh, cstack
  1109 ;; Tracked objects:
  1110 ;;		On entry : 0/0
  1111 ;;		On exit  : 0/0
  1112 ;;		Unchanged: 0/0
  1113 ;; Data sizes:     COMRAM   BANK0   BANK1   BANK2   BANK3   BANK4   BANK5   BANK6   BANK7   BANK8   BANK9  BANK10  BANK1
      +1  BANK12  BANK13  BANK14  BANK15
  1114 ;;      Params:         0       0       0       0       0       0       0       0       0       0       0       0       
      +0       0       0       0       0
  1115 ;;      Locals:         0       0       0       0       0       0       0       0       0       0       0       0       
      +0       0       0       0       0
  1116 ;;      Temps:          0       0       0       0       0       0       0       0       0       0       0       0       
      +0       0       0       0       0
  1117 ;;      Totals:         0       0       0       0       0       0       0       0       0       0       0       0       
      +0       0       0       0       0
  1118 ;;Total ram usage:        0 bytes
  1119 ;; Hardware stack levels used: 1
  1120 ;; Hardware stack levels required when called: 8
  1121 ;; This function calls:
  1122 ;;		_Ecu_interfaces_initialize
  1123 ;; This function is called by:
  1124 ;;		_main
  1125 ;; This function uses a non-reentrant model
  1126 ;;
  1127                           
  1128                           	psect	text6
  1129   001A4E                     __ptext6:
  1130                           	callstack 0
  1131   001A4E                     _application_initialize:
  1132                           	callstack 22
  1133   001A4E                     
  1134                           ;application.c: 64:     Ecu_interfaces_initialize();
  1135   001A4E  EC6F  F00C         	call	_Ecu_interfaces_initialize	;wreg free
  1136   001A52  0012               	return		;funcret
  1137   001A54                     __end_of_application_initialize:
  1138                           	callstack 0
  1139                           
  1140 ;; *************** function _Ecu_interfaces_initialize *****************
  1141 ;; Defined at:
  1142 ;;		line 156 in file "ECU_Layer/ecu_layer_initialize.c"
  1143 ;; Parameters:    Size  Location     Type
  1144 ;;		None
  1145 ;; Auto vars:     Size  Location     Type
  1146 ;;  ret             1    0        unsigned char 
  1147 ;; Return value:  Size  Location     Type
  1148 ;;                  1    wreg      void 
  1149 ;; Registers used:
  1150 ;;		wreg, fsr2l, fsr2h, status,2, status,0, prodl, prodh, cstack
  1151 ;; Tracked objects:
  1152 ;;		On entry : 0/0
  1153 ;;		On exit  : 0/0
  1154 ;;		Unchanged: 0/0
  1155 ;; Data sizes:     COMRAM   BANK0   BANK1   BANK2   BANK3   BANK4   BANK5   BANK6   BANK7   BANK8   BANK9  BANK10  BANK1
      +1  BANK12  BANK13  BANK14  BANK15
  1156 ;;      Params:         0       0       0       0       0       0       0       0       0       0       0       0       
      +0       0       0       0       0
  1157 ;;      Locals:         0       0       0       0       0       0       0       0       0       0       0       0       
      +0       0       0       0       0
  1158 ;;      Temps:          0       0       0       0       0       0       0       0       0       0       0       0       
      +0       0       0       0       0
  1159 ;;      Totals:         0       0       0       0       0       0       0       0       0       0       0       0       
      +0       0       0       0       0
  1160 ;;Total ram usage:        0 bytes
  1161 ;; Hardware stack levels used: 1
  1162 ;; Hardware stack levels required when called: 7
  1163 ;; This function calls:
  1164 ;;		_led_intialize
  1165 ;; This function is called by:
  1166 ;;		_application_initialize
  1167 ;; This function uses a non-reentrant model
  1168 ;;
  1169                           
  1170                           	psect	text7
  1171   0018DE                     __ptext7:
  1172                           	callstack 0
  1173   0018DE                     _Ecu_interfaces_initialize:
  1174                           	callstack 22
  1175   0018DE  0E44               	movlw	low _led_1
  1176   0018E0  0100               	movlb	0	; () banked
  1177   0018E2  6F80               	movwf	led_intialize@led& (0+255),b
  1178   0018E4  0E00               	movlw	high _led_1
  1179   0018E6  6F81               	movwf	(led_intialize@led+1)& (0+255),b
  1180   0018E8  ECDC  F00A         	call	_led_intialize	;wreg free
  1181   0018EC  0E43               	movlw	low _led_2
  1182   0018EE  0100               	movlb	0	; () banked
  1183   0018F0  6F80               	movwf	led_intialize@led& (0+255),b
  1184   0018F2  0E00               	movlw	high _led_2
  1185   0018F4  6F81               	movwf	(led_intialize@led+1)& (0+255),b
  1186   0018F6  ECDC  F00A         	call	_led_intialize	;wreg free
  1187   0018FA  0E42               	movlw	low _led_3
  1188   0018FC  0100               	movlb	0	; () banked
  1189   0018FE  6F80               	movwf	led_intialize@led& (0+255),b
  1190   001900  0E00               	movlw	high _led_3
  1191   001902  6F81               	movwf	(led_intialize@led+1)& (0+255),b
  1192   001904  ECDC  F00A         	call	_led_intialize	;wreg free
  1193   001908  0E41               	movlw	low _led_4
  1194   00190A  0100               	movlb	0	; () banked
  1195   00190C  6F80               	movwf	led_intialize@led& (0+255),b
  1196   00190E  0E00               	movlw	high _led_4
  1197   001910  6F81               	movwf	(led_intialize@led+1)& (0+255),b
  1198   001912  ECDC  F00A         	call	_led_intialize	;wreg free
  1199   001916  0012               	return		;funcret
  1200   001918                     __end_of_Ecu_interfaces_initialize:
  1201                           	callstack 0
  1202                           
  1203 ;; *************** function _led_intialize *****************
  1204 ;; Defined at:
  1205 ;;		line 14 in file "ECU_Layer/LED/ecu_led.c"
  1206 ;; Parameters:    Size  Location     Type
  1207 ;;  led             2    0[BANK0 ] PTR const struct .
  1208 ;;		 -> led_4(1), led_3(1), led_2(1), led_1(1), 
  1209 ;; Auto vars:     Size  Location     Type
  1210 ;;  pin_obj         1    3[BANK0 ] struct .
  1211 ;;  ret             1    2[BANK0 ] unsigned char 
  1212 ;; Return value:  Size  Location     Type
  1213 ;;                  1    wreg      unsigned char 
  1214 ;; Registers used:
  1215 ;;		wreg, fsr2l, fsr2h, status,2, status,0, prodl, prodh, cstack
  1216 ;; Tracked objects:
  1217 ;;		On entry : 0/0
  1218 ;;		On exit  : 0/0
  1219 ;;		Unchanged: 0/0
  1220 ;; Data sizes:     COMRAM   BANK0   BANK1   BANK2   BANK3   BANK4   BANK5   BANK6   BANK7   BANK8   BANK9  BANK10  BANK1
      +1  BANK12  BANK13  BANK14  BANK15
  1221 ;;      Params:         0       2       0       0       0       0       0       0       0       0       0       0       
      +0       0       0       0       0
  1222 ;;      Locals:         0       2       0       0       0       0       0       0       0       0       0       0       
      +0       0       0       0       0
  1223 ;;      Temps:          1       0       0       0       0       0       0       0       0       0       0       0       
      +0       0       0       0       0
  1224 ;;      Totals:         1       4       0       0       0       0       0       0       0       0       0       0       
      +0       0       0       0       0
  1225 ;;Total ram usage:        5 bytes
  1226 ;; Hardware stack levels used: 1
  1227 ;; Hardware stack levels required when called: 6
  1228 ;; This function calls:
  1229 ;;		_gpio_pin_initialize
  1230 ;; This function is called by:
  1231 ;;		_Ecu_interfaces_initialize
  1232 ;; This function uses a non-reentrant model
  1233 ;;
  1234                           
  1235                           	psect	text8
  1236   0015B8                     __ptext8:
  1237                           	callstack 0
  1238   0015B8                     _led_intialize:
  1239                           	callstack 22
  1240   0015B8                     
  1241                           ;ECU_Layer/LED/ecu_led.c: 16:     if(((void*)0) == led)
  1242   0015B8  0100               	movlb	0	; () banked
  1243   0015BA  5180               	movf	led_intialize@led& (0+255),w,b
  1244   0015BC  1181               	iorwf	(led_intialize@led+1)& (0+255),w,b
  1245   0015BE  A4D8               	btfss	status,2,c
  1246   0015C0  EFE4  F00A         	goto	u3091
  1247   0015C4  EFE6  F00A         	goto	u3090
  1248   0015C8                     u3091:
  1249   0015C8  EFEA  F00A         	goto	l262
  1250   0015CC                     u3090:
  1251   0015CC                     
  1252                           ; BSR set to: 0
  1253                           ;ECU_Layer/LED/ecu_led.c: 17:     {;ECU_Layer/LED/ecu_led.c: 18:         ret = (Std_Retu
      +                          rnType)0x00;
  1254   0015CC  0E00               	movlw	0
  1255   0015CE  6F82               	movwf	led_intialize@ret& (0+255),b
  1256                           
  1257                           ;ECU_Layer/LED/ecu_led.c: 19:     }
  1258   0015D0  EF1A  F00B         	goto	l3948
  1259   0015D4                     l262:
  1260                           
  1261                           ; BSR set to: 0
  1262                           ;ECU_Layer/LED/ecu_led.c: 21:         pin_config_t pin_obj = {
  1263   0015D4  C062  F083         	movff	led_intialize@F3048,led_intialize@pin_obj
  1264   0015D8                     
  1265                           ; BSR set to: 0
  1266   0015D8  C080  FFD9         	movff	led_intialize@led,fsr2l
  1267   0015DC  C081  FFDA         	movff	led_intialize@led+1,fsr2h
  1268   0015E0  50DF               	movf	223,w,c
  1269   0015E2  0B0F               	andlw	15
  1270   0015E4  6E77               	movwf	??_led_intialize^0,c
  1271   0015E6  5183               	movf	led_intialize@pin_obj& (0+255),w,b
  1272   0015E8  1877               	xorwf	??_led_intialize^0,w,c
  1273   0015EA  0BF8               	andlw	-8
  1274   0015EC  1877               	xorwf	??_led_intialize^0,w,c
  1275   0015EE  6F83               	movwf	led_intialize@pin_obj& (0+255),b
  1276   0015F0  C080  FFD9         	movff	led_intialize@led,fsr2l
  1277   0015F4  C081  FFDA         	movff	led_intialize@led+1,fsr2h
  1278   0015F8  38DF               	swapf	223,w,c
  1279   0015FA  0B07               	andlw	7
  1280   0015FC  6E77               	movwf	??_led_intialize^0,c
  1281   0015FE  4677               	rlncf	??_led_intialize^0,f,c
  1282   001600  4677               	rlncf	??_led_intialize^0,f,c
  1283   001602  4677               	rlncf	??_led_intialize^0,f,c
  1284   001604  5183               	movf	led_intialize@pin_obj& (0+255),w,b
  1285   001606  1877               	xorwf	??_led_intialize^0,w,c
  1286   001608  0BC7               	andlw	-57
  1287   00160A  1877               	xorwf	??_led_intialize^0,w,c
  1288   00160C  6F83               	movwf	led_intialize@pin_obj& (0+255),b
  1289   00160E                     
  1290                           ; BSR set to: 0
  1291   00160E  9D83               	bcf	led_intialize@pin_obj& (0+255),6,b
  1292   001610                     
  1293                           ; BSR set to: 0
  1294   001610  C080  FFD9         	movff	led_intialize@led,fsr2l
  1295   001614  C081  FFDA         	movff	led_intialize@led+1,fsr2h
  1296   001618  AEDF               	btfss	indf2,7,c
  1297   00161A  D002               	bra	u3105
  1298   00161C  8F83               	bsf	led_intialize@pin_obj& (0+255),7,b
  1299   00161E  D002               	bra	u3107
  1300   001620                     u3105:
  1301   001620  0100               	movlb	0	; () banked
  1302   001622  9F83               	bcf	led_intialize@pin_obj& (0+255),7,b
  1303   001624                     u3107:
  1304   001624                     
  1305                           ; BSR set to: 0
  1306                           ;ECU_Layer/LED/ecu_led.c: 27:         ret = gpio_pin_initialize(&pin_obj);
  1307   001624  0E83               	movlw	low led_intialize@pin_obj
  1308   001626  6E73               	movwf	gpio_pin_initialize@_pin_config^0,c
  1309   001628  0E00               	movlw	high led_intialize@pin_obj
  1310   00162A  6E74               	movwf	(gpio_pin_initialize@_pin_config+1)^0,c
  1311   00162C  ECD3  F00B         	call	_gpio_pin_initialize	;wreg free
  1312   001630  0100               	movlb	0	; () banked
  1313   001632  6F82               	movwf	led_intialize@ret& (0+255),b
  1314   001634                     l3948:
  1315                           
  1316                           ; BSR set to: 0
  1317                           ;ECU_Layer/LED/ecu_led.c: 29:     return ret;
  1318   001634  5182               	movf	led_intialize@ret& (0+255),w,b
  1319   001636                     
  1320                           ; BSR set to: 0
  1321   001636  0012               	return		;funcret
  1322   001638                     __end_of_led_intialize:
  1323                           	callstack 0
  1324                           
  1325 ;; *************** function _gpio_pin_initialize *****************
  1326 ;; Defined at:
  1327 ;;		line 135 in file "MCAL_Layer/GPIO/hal_gpio.c"
  1328 ;; Parameters:    Size  Location     Type
  1329 ;;  _pin_config     2   16[COMRAM] PTR const struct .
  1330 ;;		 -> relay_intialize@pin_obj(1), led_intialize@pin_obj(1), 
  1331 ;; Auto vars:     Size  Location     Type
  1332 ;;  ret             1   19[COMRAM] unsigned char 
  1333 ;; Return value:  Size  Location     Type
  1334 ;;                  1    wreg      unsigned char 
  1335 ;; Registers used:
  1336 ;;		wreg, fsr2l, fsr2h, status,2, status,0, prodl, prodh, cstack
  1337 ;; Tracked objects:
  1338 ;;		On entry : 0/0
  1339 ;;		On exit  : 0/0
  1340 ;;		Unchanged: 0/0
  1341 ;; Data sizes:     COMRAM   BANK0   BANK1   BANK2   BANK3   BANK4   BANK5   BANK6   BANK7   BANK8   BANK9  BANK10  BANK1
      +1  BANK12  BANK13  BANK14  BANK15
  1342 ;;      Params:         2       0       0       0       0       0       0       0       0       0       0       0       
      +0       0       0       0       0
  1343 ;;      Locals:         1       0       0       0       0       0       0       0       0       0       0       0       
      +0       0       0       0       0
  1344 ;;      Temps:          1       0       0       0       0       0       0       0       0       0       0       0       
      +0       0       0       0       0
  1345 ;;      Totals:         4       0       0       0       0       0       0       0       0       0       0       0       
      +0       0       0       0       0
  1346 ;;Total ram usage:        4 bytes
  1347 ;; Hardware stack levels used: 1
  1348 ;; Hardware stack levels required when called: 5
  1349 ;; This function calls:
  1350 ;;		_gpio_pin_direction_initialize
  1351 ;;		_gpio_pin_write_logic
  1352 ;; This function is called by:
  1353 ;;		_led_intialize
  1354 ;;		_lcd_4bit_intialize
  1355 ;;		_lcd_8bit_intialize
  1356 ;;		_dc_motor_intialize
  1357 ;;		_keypad_intialize
  1358 ;;		_relay_intialize
  1359 ;;		_seven_segment_intialize
  1360 ;; This function uses a non-reentrant model
  1361 ;;
  1362                           
  1363                           	psect	text9
  1364   0017A6                     __ptext9:
  1365                           	callstack 0
  1366   0017A6                     _gpio_pin_initialize:
  1367                           	callstack 22
  1368   0017A6                     
  1369                           ;MCAL_Layer/GPIO/hal_gpio.c: 137:     if(((void*)0) == _pin_config || (_pin_config->pin 
      +                          > 8 -1)){
  1370   0017A6  5073               	movf	gpio_pin_initialize@_pin_config^0,w,c
  1371   0017A8  1074               	iorwf	(gpio_pin_initialize@_pin_config+1)^0,w,c
  1372   0017AA  B4D8               	btfsc	status,2,c
  1373   0017AC  EFDA  F00B         	goto	u3071
  1374   0017B0  EFDC  F00B         	goto	u3070
  1375   0017B4                     u3071:
  1376   0017B4  EFED  F00B         	goto	l3926
  1377   0017B8                     u3070:
  1378   0017B8  C073  FFD9         	movff	gpio_pin_initialize@_pin_config,fsr2l
  1379   0017BC  C074  FFDA         	movff	gpio_pin_initialize@_pin_config+1,fsr2h
  1380   0017C0  30DF               	rrcf	223,w,c
  1381   0017C2  32E8               	rrcf	wreg,f,c
  1382   0017C4  32E8               	rrcf	wreg,f,c
  1383   0017C6  0B07               	andlw	7
  1384   0017C8  6E75               	movwf	??_gpio_pin_initialize^0,c
  1385   0017CA  0E07               	movlw	7
  1386   0017CC  6475               	cpfsgt	??_gpio_pin_initialize^0,c
  1387   0017CE  EFEB  F00B         	goto	u3081
  1388   0017D2  EFED  F00B         	goto	u3080
  1389   0017D6                     u3081:
  1390   0017D6  EFF1  F00B         	goto	l3928
  1391   0017DA                     u3080:
  1392   0017DA                     l3926:
  1393                           
  1394                           ;MCAL_Layer/GPIO/hal_gpio.c: 138:         ret = (Std_ReturnType)0x00;
  1395   0017DA  0E00               	movlw	0
  1396   0017DC  6E76               	movwf	gpio_pin_initialize@ret^0,c
  1397                           
  1398                           ;MCAL_Layer/GPIO/hal_gpio.c: 139:     }
  1399   0017DE  EF07  F00C         	goto	l3930
  1400   0017E2                     l3928:
  1401                           
  1402                           ;MCAL_Layer/GPIO/hal_gpio.c: 141:         ret = gpio_pin_direction_initialize(_pin_confi
      +                          g);
  1403   0017E2  C073  F069         	movff	gpio_pin_initialize@_pin_config,gpio_pin_direction_initialize@_pin_config
  1404   0017E6  C074  F06A         	movff	gpio_pin_initialize@_pin_config+1,gpio_pin_direction_initialize@_pin_config+1
  1405   0017EA  EC56  F009         	call	_gpio_pin_direction_initialize	;wreg free
  1406   0017EE  6E76               	movwf	gpio_pin_initialize@ret^0,c
  1407                           
  1408                           ;MCAL_Layer/GPIO/hal_gpio.c: 142:         ret = gpio_pin_write_logic(_pin_config, _pin_c
      +                          onfig->logic);
  1409   0017F0  C073  F069         	movff	gpio_pin_initialize@_pin_config,gpio_pin_write_logic@_pin_config
  1410   0017F4  C074  F06A         	movff	gpio_pin_initialize@_pin_config+1,gpio_pin_write_logic@_pin_config+1
  1411   0017F8  C073  FFD9         	movff	gpio_pin_initialize@_pin_config,fsr2l
  1412   0017FC  C074  FFDA         	movff	gpio_pin_initialize@_pin_config+1,fsr2h
  1413   001800  0E00               	movlw	0
  1414   001802  BEDF               	btfsc	indf2,7,c
  1415   001804  0E01               	movlw	1
  1416   001806  6E6B               	movwf	gpio_pin_write_logic@logic^0,c
  1417   001808  ECF8  F009         	call	_gpio_pin_write_logic	;wreg free
  1418   00180C  6E76               	movwf	gpio_pin_initialize@ret^0,c
  1419   00180E                     l3930:
  1420                           
  1421                           ;MCAL_Layer/GPIO/hal_gpio.c: 144:     return ret;
  1422   00180E  5076               	movf	gpio_pin_initialize@ret^0,w,c
  1423   001810  0012               	return		;funcret
  1424   001812                     __end_of_gpio_pin_initialize:
  1425                           	callstack 0
  1426                           
  1427 ;; *************** function _gpio_pin_write_logic *****************
  1428 ;; Defined at:
  1429 ;;		line 69 in file "MCAL_Layer/GPIO/hal_gpio.c"
  1430 ;; Parameters:    Size  Location     Type
  1431 ;;  _pin_config     2    6[COMRAM] PTR const struct .
  1432 ;;		 -> relay_turn_off@pin_obj(1), relay_turn_on@pin_obj(1), relay_intialize@pin_obj(1), led_turn_on@pin_obj(1), 
  1433 ;;		 -> led_turn_off@pin_obj(1), led_intialize@pin_obj(1), 
  1434 ;;  logic           1    8[COMRAM] enum E2989
  1435 ;; Auto vars:     Size  Location     Type
  1436 ;;  ret             1   15[COMRAM] unsigned char 
  1437 ;; Return value:  Size  Location     Type
  1438 ;;                  1    wreg      unsigned char 
  1439 ;; Registers used:
  1440 ;;		wreg, fsr2l, fsr2h, status,2, status,0, prodl, prodh
  1441 ;; Tracked objects:
  1442 ;;		On entry : 0/0
  1443 ;;		On exit  : 0/0
  1444 ;;		Unchanged: 0/0
  1445 ;; Data sizes:     COMRAM   BANK0   BANK1   BANK2   BANK3   BANK4   BANK5   BANK6   BANK7   BANK8   BANK9  BANK10  BANK1
      +1  BANK12  BANK13  BANK14  BANK15
  1446 ;;      Params:         3       0       0       0       0       0       0       0       0       0       0       0       
      +0       0       0       0       0
  1447 ;;      Locals:         1       0       0       0       0       0       0       0       0       0       0       0       
      +0       0       0       0       0
  1448 ;;      Temps:          6       0       0       0       0       0       0       0       0       0       0       0       
      +0       0       0       0       0
  1449 ;;      Totals:        10       0       0       0       0       0       0       0       0       0       0       0       
      +0       0       0       0       0
  1450 ;;Total ram usage:       10 bytes
  1451 ;; Hardware stack levels used: 1
  1452 ;; Hardware stack levels required when called: 4
  1453 ;; This function calls:
  1454 ;;		Nothing
  1455 ;; This function is called by:
  1456 ;;		_led_turn_off
  1457 ;;		_gpio_pin_initialize
  1458 ;;		_lcd_4bit_send_command
  1459 ;;		_lcd_4bit_send_char_data
  1460 ;;		_lcd_8bit_send_command
  1461 ;;		_lcd_8bit_send_char_data
  1462 ;;		_lcd_send_4bit
  1463 ;;		_lcd_send_4bit_enable_signal
  1464 ;;		_lcd_send_8bit_enable_signal
  1465 ;;		_dc_motor_move_right
  1466 ;;		_dc_motor_move_left
  1467 ;;		_dc_motor_stop
  1468 ;;		_keypad_get_value
  1469 ;;		_led_turn_on
  1470 ;;		_relay_turn_on
  1471 ;;		_relay_turn_off
  1472 ;;		_seven_segment_write_number
  1473 ;; This function uses a non-reentrant model
  1474 ;;
  1475                           
  1476                           	psect	text10
  1477   0013F0                     __ptext10:
  1478                           	callstack 0
  1479   0013F0                     _gpio_pin_write_logic:
  1480                           	callstack 25
  1481   0013F0                     
  1482                           ;MCAL_Layer/GPIO/hal_gpio.c: 70:     Std_ReturnType ret = (Std_ReturnType)0x01;
  1483   0013F0  0E01               	movlw	1
  1484   0013F2  6E72               	movwf	gpio_pin_write_logic@ret^0,c
  1485   0013F4                     
  1486                           ;MCAL_Layer/GPIO/hal_gpio.c: 71:     if(((void*)0) == _pin_config || (_pin_config->pin >
      +                           8 -1)){
  1487   0013F4  5069               	movf	gpio_pin_write_logic@_pin_config^0,w,c
  1488   0013F6  106A               	iorwf	(gpio_pin_write_logic@_pin_config+1)^0,w,c
  1489   0013F8  B4D8               	btfsc	status,2,c
  1490   0013FA  EF01  F00A         	goto	u3031
  1491   0013FE  EF03  F00A         	goto	u3030
  1492   001402                     u3031:
  1493   001402  EF14  F00A         	goto	l3902
  1494   001406                     u3030:
  1495   001406  C069  FFD9         	movff	gpio_pin_write_logic@_pin_config,fsr2l
  1496   00140A  C06A  FFDA         	movff	gpio_pin_write_logic@_pin_config+1,fsr2h
  1497   00140E  30DF               	rrcf	223,w,c
  1498   001410  32E8               	rrcf	wreg,f,c
  1499   001412  32E8               	rrcf	wreg,f,c
  1500   001414  0B07               	andlw	7
  1501   001416  6E6C               	movwf	??_gpio_pin_write_logic^0,c
  1502   001418  0E07               	movlw	7
  1503   00141A  646C               	cpfsgt	??_gpio_pin_write_logic^0,c
  1504   00141C  EF12  F00A         	goto	u3041
  1505   001420  EF14  F00A         	goto	u3040
  1506   001424                     u3041:
  1507   001424  EF77  F00A         	goto	l3910
  1508   001428                     u3040:
  1509   001428                     l3902:
  1510                           
  1511                           ;MCAL_Layer/GPIO/hal_gpio.c: 72:         ret = (Std_ReturnType)0x00;
  1512   001428  0E00               	movlw	0
  1513   00142A  6E72               	movwf	gpio_pin_write_logic@ret^0,c
  1514                           
  1515                           ;MCAL_Layer/GPIO/hal_gpio.c: 73:     }
  1516   00142C  EF8C  F00A         	goto	l3912
  1517   001430                     l3904:
  1518                           
  1519                           ;MCAL_Layer/GPIO/hal_gpio.c: 77:                 ((*lat_registers[_pin_config->port]) &=
      +                           ~((uint8)0x01 << (_pin_config->pin)));
  1520   001430  C069  FFD9         	movff	gpio_pin_write_logic@_pin_config,fsr2l
  1521   001434  C06A  FFDA         	movff	gpio_pin_write_logic@_pin_config+1,fsr2h
  1522   001438  30DF               	rrcf	223,w,c
  1523   00143A  32E8               	rrcf	wreg,f,c
  1524   00143C  32E8               	rrcf	wreg,f,c
  1525   00143E  0B07               	andlw	7
  1526   001440  6E6C               	movwf	??_gpio_pin_write_logic^0,c
  1527   001442  0E01               	movlw	1
  1528   001444  6E6D               	movwf	(??_gpio_pin_write_logic+1)^0,c
  1529   001446  2A6C               	incf	??_gpio_pin_write_logic^0,f,c
  1530   001448  EF28  F00A         	goto	u3054
  1531   00144C                     u3055:
  1532   00144C  90D8               	bcf	status,0,c
  1533   00144E  366D               	rlcf	(??_gpio_pin_write_logic+1)^0,f,c
  1534   001450                     u3054:
  1535   001450  2E6C               	decfsz	??_gpio_pin_write_logic^0,f,c
  1536   001452  EF26  F00A         	goto	u3055
  1537   001456  506D               	movf	(??_gpio_pin_write_logic+1)^0,w,c
  1538   001458  0AFF               	xorlw	255
  1539   00145A  6E6E               	movwf	(??_gpio_pin_write_logic+2)^0,c
  1540   00145C  C069  FFD9         	movff	gpio_pin_write_logic@_pin_config,fsr2l
  1541   001460  C06A  FFDA         	movff	gpio_pin_write_logic@_pin_config+1,fsr2h
  1542   001464  50DF               	movf	223,w,c
  1543   001466  0B07               	andlw	7
  1544   001468  6E6F               	movwf	(??_gpio_pin_write_logic+3)^0,c
  1545   00146A  506F               	movf	(??_gpio_pin_write_logic+3)^0,w,c
  1546   00146C  0D02               	mullw	2
  1547   00146E  0E0B               	movlw	low _lat_registers
  1548   001470  24F3               	addwf	243,w,c
  1549   001472  6ED9               	movwf	fsr2l,c
  1550   001474  0E00               	movlw	high _lat_registers
  1551   001476  20F4               	addwfc	prodh,w,c
  1552   001478  6EDA               	movwf	fsr2h,c
  1553   00147A  CFDE F070          	movff	postinc2,??_gpio_pin_write_logic+4
  1554   00147E  CFDD F071          	movff	postdec2,??_gpio_pin_write_logic+5
  1555   001482  C070  FFD9         	movff	??_gpio_pin_write_logic+4,fsr2l
  1556   001486  C071  FFDA         	movff	??_gpio_pin_write_logic+5,fsr2h
  1557   00148A  506E               	movf	(??_gpio_pin_write_logic+2)^0,w,c
  1558   00148C  16DF               	andwf	indf2,f,c
  1559                           
  1560                           ;MCAL_Layer/GPIO/hal_gpio.c: 78:                 break;
  1561   00148E  EF8C  F00A         	goto	l3912
  1562   001492                     l3906:
  1563                           
  1564                           ;MCAL_Layer/GPIO/hal_gpio.c: 80:                 ((*lat_registers[_pin_config->port]) |=
      +                           ((uint8)0x01 << (_pin_config->pin)));
  1565   001492  C069  FFD9         	movff	gpio_pin_write_logic@_pin_config,fsr2l
  1566   001496  C06A  FFDA         	movff	gpio_pin_write_logic@_pin_config+1,fsr2h
  1567   00149A  30DF               	rrcf	223,w,c
  1568   00149C  32E8               	rrcf	wreg,f,c
  1569   00149E  32E8               	rrcf	wreg,f,c
  1570   0014A0  0B07               	andlw	7
  1571   0014A2  6E6C               	movwf	??_gpio_pin_write_logic^0,c
  1572   0014A4  0E01               	movlw	1
  1573   0014A6  6E6D               	movwf	(??_gpio_pin_write_logic+1)^0,c
  1574   0014A8  2A6C               	incf	??_gpio_pin_write_logic^0,f,c
  1575   0014AA  EF59  F00A         	goto	u3064
  1576   0014AE                     u3065:
  1577   0014AE  90D8               	bcf	status,0,c
  1578   0014B0  366D               	rlcf	(??_gpio_pin_write_logic+1)^0,f,c
  1579   0014B2                     u3064:
  1580   0014B2  2E6C               	decfsz	??_gpio_pin_write_logic^0,f,c
  1581   0014B4  EF57  F00A         	goto	u3065
  1582   0014B8  C069  FFD9         	movff	gpio_pin_write_logic@_pin_config,fsr2l
  1583   0014BC  C06A  FFDA         	movff	gpio_pin_write_logic@_pin_config+1,fsr2h
  1584   0014C0  50DF               	movf	223,w,c
  1585   0014C2  0B07               	andlw	7
  1586   0014C4  6E6E               	movwf	(??_gpio_pin_write_logic+2)^0,c
  1587   0014C6  506E               	movf	(??_gpio_pin_write_logic+2)^0,w,c
  1588   0014C8  0D02               	mullw	2
  1589   0014CA  0E0B               	movlw	low _lat_registers
  1590   0014CC  24F3               	addwf	243,w,c
  1591   0014CE  6ED9               	movwf	fsr2l,c
  1592   0014D0  0E00               	movlw	high _lat_registers
  1593   0014D2  20F4               	addwfc	prodh,w,c
  1594   0014D4  6EDA               	movwf	fsr2h,c
  1595   0014D6  CFDE F06F          	movff	postinc2,??_gpio_pin_write_logic+3
  1596   0014DA  CFDD F070          	movff	postdec2,??_gpio_pin_write_logic+4
  1597   0014DE  C06F  FFD9         	movff	??_gpio_pin_write_logic+3,fsr2l
  1598   0014E2  C070  FFDA         	movff	??_gpio_pin_write_logic+4,fsr2h
  1599   0014E6  506D               	movf	(??_gpio_pin_write_logic+1)^0,w,c
  1600   0014E8  12DF               	iorwf	indf2,f,c
  1601                           
  1602                           ;MCAL_Layer/GPIO/hal_gpio.c: 81:                 break;
  1603   0014EA  EF8C  F00A         	goto	l3912
  1604   0014EE                     l3910:
  1605   0014EE  506B               	movf	gpio_pin_write_logic@logic^0,w,c
  1606   0014F0  6E6C               	movwf	??_gpio_pin_write_logic^0,c
  1607   0014F2  6A6D               	clrf	(??_gpio_pin_write_logic+1)^0,c
  1608                           
  1609                           ; Switch on 2 bytes has been partitioned into a top level switch of size 1, and 1 sub-sw
      +                          itches
  1610                           ; Switch size 1, requested type "simple"
  1611                           ; Number of cases is 1, Range of values is 0 to 0
  1612                           ; switch strategies available:
  1613                           ; Name         Instructions Cycles
  1614                           ; simple_byte            4     3 (average)
  1615                           ;	Chosen strategy is simple_byte
  1616   0014F4  506D               	movf	(??_gpio_pin_write_logic+1)^0,w,c
  1617   0014F6  0A00               	xorlw	0	; case 0
  1618   0014F8  B4D8               	btfsc	status,2,c
  1619   0014FA  EF81  F00A         	goto	l4696
  1620   0014FE  EF8C  F00A         	goto	l3912
  1621   001502                     l4696:
  1622                           
  1623                           ; Switch size 1, requested type "simple"
  1624                           ; Number of cases is 2, Range of values is 0 to 1
  1625                           ; switch strategies available:
  1626                           ; Name         Instructions Cycles
  1627                           ; simple_byte            7     4 (average)
  1628                           ;	Chosen strategy is simple_byte
  1629   001502  506C               	movf	??_gpio_pin_write_logic^0,w,c
  1630   001504  0A00               	xorlw	0	; case 0
  1631   001506  B4D8               	btfsc	status,2,c
  1632   001508  EF18  F00A         	goto	l3904
  1633   00150C  0A01               	xorlw	1	; case 1
  1634   00150E  B4D8               	btfsc	status,2,c
  1635   001510  EF49  F00A         	goto	l3906
  1636   001514  EF8C  F00A         	goto	l3912
  1637   001518                     l3912:
  1638                           
  1639                           ;MCAL_Layer/GPIO/hal_gpio.c: 84:     return ret;
  1640   001518  5072               	movf	gpio_pin_write_logic@ret^0,w,c
  1641   00151A  0012               	return		;funcret
  1642   00151C                     __end_of_gpio_pin_write_logic:
  1643                           	callstack 0
  1644                           
  1645 ;; *************** function _gpio_pin_direction_initialize *****************
  1646 ;; Defined at:
  1647 ;;		line 20 in file "MCAL_Layer/GPIO/hal_gpio.c"
  1648 ;; Parameters:    Size  Location     Type
  1649 ;;  _pin_config     2    6[COMRAM] PTR const struct .
  1650 ;;		 -> relay_intialize@pin_obj(1), led_intialize@pin_obj(1), 
  1651 ;; Auto vars:     Size  Location     Type
  1652 ;;  ret             1   14[COMRAM] unsigned char 
  1653 ;; Return value:  Size  Location     Type
  1654 ;;                  1    wreg      unsigned char 
  1655 ;; Registers used:
  1656 ;;		wreg, fsr2l, fsr2h, status,2, status,0, prodl, prodh
  1657 ;; Tracked objects:
  1658 ;;		On entry : 0/0
  1659 ;;		On exit  : 0/0
  1660 ;;		Unchanged: 0/0
  1661 ;; Data sizes:     COMRAM   BANK0   BANK1   BANK2   BANK3   BANK4   BANK5   BANK6   BANK7   BANK8   BANK9  BANK10  BANK1
      +1  BANK12  BANK13  BANK14  BANK15
  1662 ;;      Params:         2       0       0       0       0       0       0       0       0       0       0       0       
      +0       0       0       0       0
  1663 ;;      Locals:         1       0       0       0       0       0       0       0       0       0       0       0       
      +0       0       0       0       0
  1664 ;;      Temps:          6       0       0       0       0       0       0       0       0       0       0       0       
      +0       0       0       0       0
  1665 ;;      Totals:         9       0       0       0       0       0       0       0       0       0       0       0       
      +0       0       0       0       0
  1666 ;;Total ram usage:        9 bytes
  1667 ;; Hardware stack levels used: 1
  1668 ;; Hardware stack levels required when called: 4
  1669 ;; This function calls:
  1670 ;;		Nothing
  1671 ;; This function is called by:
  1672 ;;		_gpio_pin_initialize
  1673 ;;		_button_intialize
  1674 ;;		_keypad_intialize
  1675 ;;		_Interrupt_RBx_Init
  1676 ;;		_Interrupt_INTx_Pin_Init
  1677 ;; This function uses a non-reentrant model
  1678 ;;
  1679                           
  1680                           	psect	text11
  1681   0012AC                     __ptext11:
  1682                           	callstack 0
  1683   0012AC                     _gpio_pin_direction_initialize:
  1684                           	callstack 22
  1685   0012AC                     
  1686                           ;MCAL_Layer/GPIO/hal_gpio.c: 21:     Std_ReturnType ret = (Std_ReturnType)0x01;
  1687   0012AC  0E01               	movlw	1
  1688   0012AE  6E71               	movwf	gpio_pin_direction_initialize@ret^0,c
  1689   0012B0                     
  1690                           ;MCAL_Layer/GPIO/hal_gpio.c: 22:     if(((void*)0) == _pin_config || (_pin_config->pin >
      +                           8 -1)){
  1691   0012B0  5069               	movf	gpio_pin_direction_initialize@_pin_config^0,w,c
  1692   0012B2  106A               	iorwf	(gpio_pin_direction_initialize@_pin_config+1)^0,w,c
  1693   0012B4  B4D8               	btfsc	status,2,c
  1694   0012B6  EF5F  F009         	goto	u2971
  1695   0012BA  EF61  F009         	goto	u2970
  1696   0012BE                     u2971:
  1697   0012BE  EF72  F009         	goto	l3878
  1698   0012C2                     u2970:
  1699   0012C2  C069  FFD9         	movff	gpio_pin_direction_initialize@_pin_config,fsr2l
  1700   0012C6  C06A  FFDA         	movff	gpio_pin_direction_initialize@_pin_config+1,fsr2h
  1701   0012CA  30DF               	rrcf	223,w,c
  1702   0012CC  32E8               	rrcf	wreg,f,c
  1703   0012CE  32E8               	rrcf	wreg,f,c
  1704   0012D0  0B07               	andlw	7
  1705   0012D2  6E6B               	movwf	??_gpio_pin_direction_initialize^0,c
  1706   0012D4  0E07               	movlw	7
  1707   0012D6  646B               	cpfsgt	??_gpio_pin_direction_initialize^0,c
  1708   0012D8  EF70  F009         	goto	u2981
  1709   0012DC  EF72  F009         	goto	u2980
  1710   0012E0                     u2981:
  1711   0012E0  EFD5  F009         	goto	l3886
  1712   0012E4                     u2980:
  1713   0012E4                     l3878:
  1714                           
  1715                           ;MCAL_Layer/GPIO/hal_gpio.c: 23:         ret = (Std_ReturnType)0x00;
  1716   0012E4  0E00               	movlw	0
  1717   0012E6  6E71               	movwf	gpio_pin_direction_initialize@ret^0,c
  1718                           
  1719                           ;MCAL_Layer/GPIO/hal_gpio.c: 24:     }else{
  1720   0012E8  EFF6  F009         	goto	l3888
  1721   0012EC                     l3880:
  1722                           
  1723                           ;MCAL_Layer/GPIO/hal_gpio.c: 27:                 ((*tris_registers[_pin_config->port]) &
      +                          = ~((uint8)0x01 << (_pin_config->pin)));
  1724   0012EC  C069  FFD9         	movff	gpio_pin_direction_initialize@_pin_config,fsr2l
  1725   0012F0  C06A  FFDA         	movff	gpio_pin_direction_initialize@_pin_config+1,fsr2h
  1726   0012F4  30DF               	rrcf	223,w,c
  1727   0012F6  32E8               	rrcf	wreg,f,c
  1728   0012F8  32E8               	rrcf	wreg,f,c
  1729   0012FA  0B07               	andlw	7
  1730   0012FC  6E6B               	movwf	??_gpio_pin_direction_initialize^0,c
  1731   0012FE  0E01               	movlw	1
  1732   001300  6E6C               	movwf	(??_gpio_pin_direction_initialize+1)^0,c
  1733   001302  2A6B               	incf	??_gpio_pin_direction_initialize^0,f,c
  1734   001304  EF86  F009         	goto	u2994
  1735   001308                     u2995:
  1736   001308  90D8               	bcf	status,0,c
  1737   00130A  366C               	rlcf	(??_gpio_pin_direction_initialize+1)^0,f,c
  1738   00130C                     u2994:
  1739   00130C  2E6B               	decfsz	??_gpio_pin_direction_initialize^0,f,c
  1740   00130E  EF84  F009         	goto	u2995
  1741   001312  506C               	movf	(??_gpio_pin_direction_initialize+1)^0,w,c
  1742   001314  0AFF               	xorlw	255
  1743   001316  6E6D               	movwf	(??_gpio_pin_direction_initialize+2)^0,c
  1744   001318  C069  FFD9         	movff	gpio_pin_direction_initialize@_pin_config,fsr2l
  1745   00131C  C06A  FFDA         	movff	gpio_pin_direction_initialize@_pin_config+1,fsr2h
  1746   001320  50DF               	movf	223,w,c
  1747   001322  0B07               	andlw	7
  1748   001324  6E6E               	movwf	(??_gpio_pin_direction_initialize+3)^0,c
  1749   001326  506E               	movf	(??_gpio_pin_direction_initialize+3)^0,w,c
  1750   001328  0D02               	mullw	2
  1751   00132A  0E15               	movlw	low _tris_registers
  1752   00132C  24F3               	addwf	243,w,c
  1753   00132E  6ED9               	movwf	fsr2l,c
  1754   001330  0E00               	movlw	high _tris_registers
  1755   001332  20F4               	addwfc	prodh,w,c
  1756   001334  6EDA               	movwf	fsr2h,c
  1757   001336  CFDE F06F          	movff	postinc2,??_gpio_pin_direction_initialize+4
  1758   00133A  CFDD F070          	movff	postdec2,??_gpio_pin_direction_initialize+5
  1759   00133E  C06F  FFD9         	movff	??_gpio_pin_direction_initialize+4,fsr2l
  1760   001342  C070  FFDA         	movff	??_gpio_pin_direction_initialize+5,fsr2h
  1761   001346  506D               	movf	(??_gpio_pin_direction_initialize+2)^0,w,c
  1762   001348  16DF               	andwf	indf2,f,c
  1763                           
  1764                           ;MCAL_Layer/GPIO/hal_gpio.c: 28:                 break;
  1765   00134A  EFF6  F009         	goto	l3888
  1766   00134E                     l3882:
  1767                           
  1768                           ;MCAL_Layer/GPIO/hal_gpio.c: 30:                 ((*tris_registers[_pin_config->port]) |
      +                          = ((uint8)0x01 << (_pin_config->pin)));
  1769   00134E  C069  FFD9         	movff	gpio_pin_direction_initialize@_pin_config,fsr2l
  1770   001352  C06A  FFDA         	movff	gpio_pin_direction_initialize@_pin_config+1,fsr2h
  1771   001356  30DF               	rrcf	223,w,c
  1772   001358  32E8               	rrcf	wreg,f,c
  1773   00135A  32E8               	rrcf	wreg,f,c
  1774   00135C  0B07               	andlw	7
  1775   00135E  6E6B               	movwf	??_gpio_pin_direction_initialize^0,c
  1776   001360  0E01               	movlw	1
  1777   001362  6E6C               	movwf	(??_gpio_pin_direction_initialize+1)^0,c
  1778   001364  2A6B               	incf	??_gpio_pin_direction_initialize^0,f,c
  1779   001366  EFB7  F009         	goto	u3004
  1780   00136A                     u3005:
  1781   00136A  90D8               	bcf	status,0,c
  1782   00136C  366C               	rlcf	(??_gpio_pin_direction_initialize+1)^0,f,c
  1783   00136E                     u3004:
  1784   00136E  2E6B               	decfsz	??_gpio_pin_direction_initialize^0,f,c
  1785   001370  EFB5  F009         	goto	u3005
  1786   001374  C069  FFD9         	movff	gpio_pin_direction_initialize@_pin_config,fsr2l
  1787   001378  C06A  FFDA         	movff	gpio_pin_direction_initialize@_pin_config+1,fsr2h
  1788   00137C  50DF               	movf	223,w,c
  1789   00137E  0B07               	andlw	7
  1790   001380  6E6D               	movwf	(??_gpio_pin_direction_initialize+2)^0,c
  1791   001382  506D               	movf	(??_gpio_pin_direction_initialize+2)^0,w,c
  1792   001384  0D02               	mullw	2
  1793   001386  0E15               	movlw	low _tris_registers
  1794   001388  24F3               	addwf	243,w,c
  1795   00138A  6ED9               	movwf	fsr2l,c
  1796   00138C  0E00               	movlw	high _tris_registers
  1797   00138E  20F4               	addwfc	prodh,w,c
  1798   001390  6EDA               	movwf	fsr2h,c
  1799   001392  CFDE F06E          	movff	postinc2,??_gpio_pin_direction_initialize+3
  1800   001396  CFDD F06F          	movff	postdec2,??_gpio_pin_direction_initialize+4
  1801   00139A  C06E  FFD9         	movff	??_gpio_pin_direction_initialize+3,fsr2l
  1802   00139E  C06F  FFDA         	movff	??_gpio_pin_direction_initialize+4,fsr2h
  1803   0013A2  506C               	movf	(??_gpio_pin_direction_initialize+1)^0,w,c
  1804   0013A4  12DF               	iorwf	indf2,f,c
  1805                           
  1806                           ;MCAL_Layer/GPIO/hal_gpio.c: 31:                 break;
  1807   0013A6  EFF6  F009         	goto	l3888
  1808   0013AA                     l3886:
  1809   0013AA  C069  FFD9         	movff	gpio_pin_direction_initialize@_pin_config,fsr2l
  1810   0013AE  C06A  FFDA         	movff	gpio_pin_direction_initialize@_pin_config+1,fsr2h
  1811   0013B2  BCDF               	btfsc	indf2,6,c
  1812   0013B4  EFDE  F009         	goto	u3011
  1813   0013B8  EFE1  F009         	goto	u3010
  1814   0013BC                     u3011:
  1815   0013BC  0E01               	movlw	1
  1816   0013BE  EFE2  F009         	goto	u3020
  1817   0013C2                     u3010:
  1818   0013C2  0E00               	movlw	0
  1819   0013C4                     u3020:
  1820   0013C4  6E6B               	movwf	??_gpio_pin_direction_initialize^0,c
  1821   0013C6  6A6C               	clrf	(??_gpio_pin_direction_initialize+1)^0,c
  1822                           
  1823                           ; Switch on 2 bytes has been partitioned into a top level switch of size 1, and 1 sub-sw
      +                          itches
  1824                           ; Switch size 1, requested type "simple"
  1825                           ; Number of cases is 1, Range of values is 0 to 0
  1826                           ; switch strategies available:
  1827                           ; Name         Instructions Cycles
  1828                           ; simple_byte            4     3 (average)
  1829                           ;	Chosen strategy is simple_byte
  1830   0013C8  506C               	movf	(??_gpio_pin_direction_initialize+1)^0,w,c
  1831   0013CA  0A00               	xorlw	0	; case 0
  1832   0013CC  B4D8               	btfsc	status,2,c
  1833   0013CE  EFEB  F009         	goto	l4698
  1834   0013D2  EF72  F009         	goto	l3878
  1835   0013D6                     l4698:
  1836                           
  1837                           ; Switch size 1, requested type "simple"
  1838                           ; Number of cases is 2, Range of values is 0 to 1
  1839                           ; switch strategies available:
  1840                           ; Name         Instructions Cycles
  1841                           ; simple_byte            7     4 (average)
  1842                           ;	Chosen strategy is simple_byte
  1843   0013D6  506B               	movf	??_gpio_pin_direction_initialize^0,w,c
  1844   0013D8  0A00               	xorlw	0	; case 0
  1845   0013DA  B4D8               	btfsc	status,2,c
  1846   0013DC  EF76  F009         	goto	l3880
  1847   0013E0  0A01               	xorlw	1	; case 1
  1848   0013E2  B4D8               	btfsc	status,2,c
  1849   0013E4  EFA7  F009         	goto	l3882
  1850   0013E8  EF72  F009         	goto	l3878
  1851   0013EC                     l3888:
  1852                           
  1853                           ;MCAL_Layer/GPIO/hal_gpio.c: 36:     return ret;
  1854   0013EC  5071               	movf	gpio_pin_direction_initialize@ret^0,w,c
  1855   0013EE  0012               	return		;funcret
  1856   0013F0                     __end_of_gpio_pin_direction_initialize:
  1857                           	callstack 0
  1858                           
  1859 ;; *************** function _Data_EEPROM_ReadByte *****************
  1860 ;; Defined at:
  1861 ;;		line 39 in file "MCAL_Layer/EEPROM/hal_eeprom.c"
  1862 ;; Parameters:    Size  Location     Type
  1863 ;;  bAdd            2    6[COMRAM] unsigned short 
  1864 ;;  bData           2    8[COMRAM] PTR unsigned char 
  1865 ;;		 -> RAM(3967), 
  1866 ;; Auto vars:     Size  Location     Type
  1867 ;;  ret             1   10[COMRAM] unsigned char 
  1868 ;; Return value:  Size  Location     Type
  1869 ;;                  1    wreg      unsigned char 
  1870 ;; Registers used:
  1871 ;;		wreg, fsr2l, fsr2h, status,2, status,0
  1872 ;; Tracked objects:
  1873 ;;		On entry : 0/0
  1874 ;;		On exit  : 0/0
  1875 ;;		Unchanged: 0/0
  1876 ;; Data sizes:     COMRAM   BANK0   BANK1   BANK2   BANK3   BANK4   BANK5   BANK6   BANK7   BANK8   BANK9  BANK10  BANK1
      +1  BANK12  BANK13  BANK14  BANK15
  1877 ;;      Params:         4       0       0       0       0       0       0       0       0       0       0       0       
      +0       0       0       0       0
  1878 ;;      Locals:         1       0       0       0       0       0       0       0       0       0       0       0       
      +0       0       0       0       0
  1879 ;;      Temps:          0       0       0       0       0       0       0       0       0       0       0       0       
      +0       0       0       0       0
  1880 ;;      Totals:         5       0       0       0       0       0       0       0       0       0       0       0       
      +0       0       0       0       0
  1881 ;;Total ram usage:        5 bytes
  1882 ;; Hardware stack levels used: 1
  1883 ;; Hardware stack levels required when called: 4
  1884 ;; This function calls:
  1885 ;;		Nothing
  1886 ;; This function is called by:
  1887 ;;		_main
  1888 ;; This function uses a non-reentrant model
  1889 ;;
  1890                           
  1891                           	psect	text12
  1892   00189C                     __ptext12:
  1893                           	callstack 0
  1894   00189C                     _Data_EEPROM_ReadByte:
  1895                           	callstack 26
  1896   00189C                     
  1897                           ;MCAL_Layer/EEPROM/hal_eeprom.c: 40:     Std_ReturnType ret = (Std_ReturnType)0x01;
  1898   00189C  0E01               	movlw	1
  1899   00189E  6E6D               	movwf	Data_EEPROM_ReadByte@ret^0,c
  1900   0018A0                     
  1901                           ;MCAL_Layer/EEPROM/hal_eeprom.c: 41:     if(((void*)0) == bData)
  1902   0018A0  506B               	movf	Data_EEPROM_ReadByte@bData^0,w,c
  1903   0018A2  106C               	iorwf	(Data_EEPROM_ReadByte@bData+1)^0,w,c
  1904   0018A4  A4D8               	btfss	status,2,c
  1905   0018A6  EF57  F00C         	goto	u2111
  1906   0018AA  EF59  F00C         	goto	u2110
  1907   0018AE                     u2111:
  1908   0018AE  EF5D  F00C         	goto	l3220
  1909   0018B2                     u2110:
  1910   0018B2                     
  1911                           ;MCAL_Layer/EEPROM/hal_eeprom.c: 42:     {;MCAL_Layer/EEPROM/hal_eeprom.c: 43:         r
      +                          et = (Std_ReturnType)0x00;
  1912   0018B2  0E00               	movlw	0
  1913   0018B4  6E6D               	movwf	Data_EEPROM_ReadByte@ret^0,c
  1914                           
  1915                           ;MCAL_Layer/EEPROM/hal_eeprom.c: 44:     }
  1916   0018B6  EF6D  F00C         	goto	l3236
  1917   0018BA                     l3220:
  1918                           
  1919                           ;MCAL_Layer/EEPROM/hal_eeprom.c: 47:         EEADRH = (uint8)((bAdd >> 8) & 0x03);
  1920   0018BA  506A               	movf	(Data_EEPROM_ReadByte@bAdd+1)^0,w,c
  1921   0018BC  0B03               	andlw	3
  1922   0018BE  6EAA               	movwf	170,c	;volatile
  1923   0018C0                     
  1924                           ;MCAL_Layer/EEPROM/hal_eeprom.c: 48:         EEADR = (uint8)(bAdd & 0xFF);
  1925   0018C0  C069  FFA9         	movff	Data_EEPROM_ReadByte@bAdd,4009	;volatile
  1926   0018C4                     
  1927                           ;MCAL_Layer/EEPROM/hal_eeprom.c: 50:         EECON1bits.EEPGD = 0;
  1928   0018C4  9EA6               	bcf	166,7,c	;volsfr
  1929   0018C6                     
  1930                           ;MCAL_Layer/EEPROM/hal_eeprom.c: 51:         EECON1bits.CFGS = 0;
  1931   0018C6  9CA6               	bcf	166,6,c	;volsfr
  1932   0018C8                     
  1933                           ;MCAL_Layer/EEPROM/hal_eeprom.c: 53:         EECON1bits.RD = 1;
  1934   0018C8  80A6               	bsf	166,0,c	;volsfr
  1935   0018CA                     
  1936                           ;MCAL_Layer/EEPROM/hal_eeprom.c: 55:         __nop();
  1937   0018CA  F000               	nop	
  1938   0018CC                     
  1939                           ;MCAL_Layer/EEPROM/hal_eeprom.c: 56:         __nop();
  1940   0018CC  F000               	nop	
  1941   0018CE                     
  1942                           ;MCAL_Layer/EEPROM/hal_eeprom.c: 58:         *bData = EEDATA;
  1943   0018CE  C06B  FFD9         	movff	Data_EEPROM_ReadByte@bData,fsr2l
  1944   0018D2  C06C  FFDA         	movff	Data_EEPROM_ReadByte@bData+1,fsr2h
  1945   0018D6  CFA8 FFDF          	movff	4008,indf2	;volatile
  1946   0018DA                     l3236:
  1947                           
  1948                           ;MCAL_Layer/EEPROM/hal_eeprom.c: 60:     return ret;
  1949   0018DA  506D               	movf	Data_EEPROM_ReadByte@ret^0,w,c
  1950   0018DC  0012               	return		;funcret
  1951   0018DE                     __end_of_Data_EEPROM_ReadByte:
  1952                           	callstack 0
  1953                           
  1954 ;; *************** function _InterruptManger *****************
  1955 ;; Defined at:
  1956 ;;		line 34 in file "MCAL_Layer/Interrupt/mcal_interrupt_manger.c"
  1957 ;; Parameters:    Size  Location     Type
  1958 ;;		None
  1959 ;; Auto vars:     Size  Location     Type
  1960 ;;		None
  1961 ;; Return value:  Size  Location     Type
  1962 ;;                  1    wreg      void 
  1963 ;; Registers used:
  1964 ;;		wreg, status,2, status,0, pcl, pclath, pclatu, tosl, cstack
  1965 ;; Tracked objects:
  1966 ;;		On entry : 0/0
  1967 ;;		On exit  : 0/0
  1968 ;;		Unchanged: 0/0
  1969 ;; Data sizes:     COMRAM   BANK0   BANK1   BANK2   BANK3   BANK4   BANK5   BANK6   BANK7   BANK8   BANK9  BANK10  BANK1
      +1  BANK12  BANK13  BANK14  BANK15
  1970 ;;      Params:         0       0       0       0       0       0       0       0       0       0       0       0       
      +0       0       0       0       0
  1971 ;;      Locals:         0       0       0       0       0       0       0       0       0       0       0       0       
      +0       0       0       0       0
  1972 ;;      Temps:          2       0       0       0       0       0       0       0       0       0       0       0       
      +0       0       0       0       0
  1973 ;;      Totals:         2       0       0       0       0       0       0       0       0       0       0       0       
      +0       0       0       0       0
  1974 ;;Total ram usage:        2 bytes
  1975 ;; Hardware stack levels used: 1
  1976 ;; Hardware stack levels required when called: 3
  1977 ;; This function calls:
  1978 ;;		_INT0_ISR
  1979 ;;		_INT1_ISR
  1980 ;;		_INT2_ISR
  1981 ;;		_RB4_ISR
  1982 ;;		_RB5_ISR
  1983 ;;		_RB6_ISR
  1984 ;;		_RB7_ISR
  1985 ;; This function is called by:
  1986 ;;		Interrupt level 2
  1987 ;; This function uses a non-reentrant model
  1988 ;;
  1989                           
  1990                           	psect	intcode
  1991   000008                     __pintcode:
  1992                           	callstack 0
  1993   000008                     _InterruptManger:
  1994                           	callstack 22
  1995                           
  1996                           ;incstack = 0
  1997   000008  8279               	bsf	int$flags,1,c	;set compiler interrupt flag (level 2)
  1998   00000A  ED0B  F008         	call	int_func,f	;refresh shadow registers
  1999                           
  2000                           	psect	intcode_body
  2001   001016                     __pintcode_body:
  2002                           	callstack 22
  2003   001016                     int_func:
  2004                           	callstack 22
  2005   001016  0006               	pop		; remove dummy address from shadow register refresh
  2006   001018  CFFA F067          	movff	pclath,??_InterruptManger
  2007   00101C  CFFB F068          	movff	pclatu,??_InterruptManger+1
  2008   001020                     
  2009                           ;MCAL_Layer/Interrupt/mcal_interrupt_manger.c: 35:     if((1 == INTCONbits.INT0IE) && (1
      +                           == INTCONbits.INT0IF))
  2010   001020  A8F2               	btfss	242,4,c	;volatile
  2011   001022  EF15  F008         	goto	i2u254_41
  2012   001026  EF17  F008         	goto	i2u254_40
  2013   00102A                     i2u254_41:
  2014   00102A  EF20  F008         	goto	i2l497
  2015   00102E                     i2u254_40:
  2016   00102E  A2F2               	btfss	242,1,c	;volatile
  2017   001030  EF1C  F008         	goto	i2u255_41
  2018   001034  EF1E  F008         	goto	i2u255_40
  2019   001038                     i2u255_41:
  2020   001038  EF20  F008         	goto	i2l497
  2021   00103C                     i2u255_40:
  2022   00103C                     
  2023                           ;MCAL_Layer/Interrupt/mcal_interrupt_manger.c: 36:     {;MCAL_Layer/Interrupt/mcal_inter
      +                          rupt_manger.c: 37:         INT0_ISR();
  2024   00103C  ECD5  F00C         	call	_INT0_ISR	;wreg free
  2025   001040                     i2l497:
  2026                           
  2027                           ;MCAL_Layer/Interrupt/mcal_interrupt_manger.c: 40:     if((1 == INTCON3bits.INT1IE) && (
      +                          1 == INTCON3bits.INT1IF))
  2028   001040  A6F0               	btfss	240,3,c	;volatile
  2029   001042  EF25  F008         	goto	i2u256_41
  2030   001046  EF27  F008         	goto	i2u256_40
  2031   00104A                     i2u256_41:
  2032   00104A  EF30  F008         	goto	i2l499
  2033   00104E                     i2u256_40:
  2034   00104E  A0F0               	btfss	240,0,c	;volatile
  2035   001050  EF2C  F008         	goto	i2u257_41
  2036   001054  EF2E  F008         	goto	i2u257_40
  2037   001058                     i2u257_41:
  2038   001058  EF30  F008         	goto	i2l499
  2039   00105C                     i2u257_40:
  2040   00105C                     
  2041                           ;MCAL_Layer/Interrupt/mcal_interrupt_manger.c: 41:     {;MCAL_Layer/Interrupt/mcal_inter
      +                          rupt_manger.c: 42:         INT1_ISR();
  2042   00105C  ECBE  F00C         	call	_INT1_ISR	;wreg free
  2043   001060                     i2l499:
  2044                           
  2045                           ;MCAL_Layer/Interrupt/mcal_interrupt_manger.c: 45:     if((1 == INTCON3bits.INT2IE) && (
      +                          1 == INTCON3bits.INT2IF))
  2046   001060  A8F0               	btfss	240,4,c	;volatile
  2047   001062  EF35  F008         	goto	i2u258_41
  2048   001066  EF37  F008         	goto	i2u258_40
  2049   00106A                     i2u258_41:
  2050   00106A  EF40  F008         	goto	i2l501
  2051   00106E                     i2u258_40:
  2052   00106E  A2F0               	btfss	240,1,c	;volatile
  2053   001070  EF3C  F008         	goto	i2u259_41
  2054   001074  EF3E  F008         	goto	i2u259_40
  2055   001078                     i2u259_41:
  2056   001078  EF40  F008         	goto	i2l501
  2057   00107C                     i2u259_40:
  2058   00107C                     
  2059                           ;MCAL_Layer/Interrupt/mcal_interrupt_manger.c: 46:     {;MCAL_Layer/Interrupt/mcal_inter
      +                          rupt_manger.c: 47:         INT2_ISR();
  2060   00107C  ECA7  F00C         	call	_INT2_ISR	;wreg free
  2061   001080                     i2l501:
  2062                           
  2063                           ;MCAL_Layer/Interrupt/mcal_interrupt_manger.c: 50:     if((1 == INTCONbits.RBIE) && (1 =
      +                          = INTCONbits.RBIF)
  2064   001080  A6F2               	btfss	242,3,c	;volatile
  2065   001082  EF45  F008         	goto	i2u260_41
  2066   001086  EF47  F008         	goto	i2u260_40
  2067   00108A                     i2u260_41:
  2068   00108A  EF62  F008         	goto	i2l503
  2069   00108E                     i2u260_40:
  2070   00108E  A0F2               	btfss	242,0,c	;volatile
  2071   001090  EF4C  F008         	goto	i2u261_41
  2072   001094  EF4E  F008         	goto	i2u261_40
  2073   001098                     i2u261_41:
  2074   001098  EF62  F008         	goto	i2l503
  2075   00109C                     i2u261_40:
  2076   00109C  A881               	btfss	129,4,c	;volatile
  2077   00109E  EF53  F008         	goto	i2u262_41
  2078   0010A2  EF55  F008         	goto	i2u262_40
  2079   0010A6                     i2u262_41:
  2080   0010A6  EF62  F008         	goto	i2l503
  2081   0010AA                     i2u262_40:
  2082   0010AA  0440               	decf	_RB4_Flag^0,w,c	;volatile
  2083   0010AC  A4D8               	btfss	status,2,c
  2084   0010AE  EF5B  F008         	goto	i2u263_41
  2085   0010B2  EF5D  F008         	goto	i2u263_40
  2086   0010B6                     i2u263_41:
  2087   0010B6  EF62  F008         	goto	i2l503
  2088   0010BA                     i2u263_40:
  2089   0010BA                     
  2090                           ;MCAL_Layer/Interrupt/mcal_interrupt_manger.c: 52:     {;MCAL_Layer/Interrupt/mcal_inter
      +                          rupt_manger.c: 53:         RB4_Flag =0;
  2091   0010BA  0E00               	movlw	0
  2092   0010BC  6E40               	movwf	_RB4_Flag^0,c	;volatile
  2093   0010BE                     
  2094                           ;MCAL_Layer/Interrupt/mcal_interrupt_manger.c: 54:         RB4_ISR(0);
  2095   0010BE  0E00               	movlw	0
  2096   0010C0  EC30  F00D         	call	_RB4_ISR
  2097   0010C4                     i2l503:
  2098                           
  2099                           ;MCAL_Layer/Interrupt/mcal_interrupt_manger.c: 57:     if((1 == INTCONbits.RBIE) && (1 =
      +                          = INTCONbits.RBIF)
  2100   0010C4  A6F2               	btfss	242,3,c	;volatile
  2101   0010C6  EF67  F008         	goto	i2u264_41
  2102   0010CA  EF69  F008         	goto	i2u264_40
  2103   0010CE                     i2u264_41:
  2104   0010CE  EF84  F008         	goto	i2l505
  2105   0010D2                     i2u264_40:
  2106   0010D2  A0F2               	btfss	242,0,c	;volatile
  2107   0010D4  EF6E  F008         	goto	i2u265_41
  2108   0010D8  EF70  F008         	goto	i2u265_40
  2109   0010DC                     i2u265_41:
  2110   0010DC  EF84  F008         	goto	i2l505
  2111   0010E0                     i2u265_40:
  2112   0010E0  B881               	btfsc	129,4,c	;volatile
  2113   0010E2  EF75  F008         	goto	i2u266_41
  2114   0010E6  EF77  F008         	goto	i2u266_40
  2115   0010EA                     i2u266_41:
  2116   0010EA  EF84  F008         	goto	i2l505
  2117   0010EE                     i2u266_40:
  2118   0010EE  5040               	movf	_RB4_Flag^0,w,c	;volatile
  2119   0010F0  A4D8               	btfss	status,2,c
  2120   0010F2  EF7D  F008         	goto	i2u267_41
  2121   0010F6  EF7F  F008         	goto	i2u267_40
  2122   0010FA                     i2u267_41:
  2123   0010FA  EF84  F008         	goto	i2l505
  2124   0010FE                     i2u267_40:
  2125   0010FE                     
  2126                           ;MCAL_Layer/Interrupt/mcal_interrupt_manger.c: 59:     {;MCAL_Layer/Interrupt/mcal_inter
      +                          rupt_manger.c: 60:         RB4_Flag = 1;
  2127   0010FE  0E01               	movlw	1
  2128   001100  6E40               	movwf	_RB4_Flag^0,c	;volatile
  2129   001102                     
  2130                           ;MCAL_Layer/Interrupt/mcal_interrupt_manger.c: 61:         RB4_ISR(1);
  2131   001102  0E01               	movlw	1
  2132   001104  EC30  F00D         	call	_RB4_ISR
  2133   001108                     i2l505:
  2134                           
  2135                           ;MCAL_Layer/Interrupt/mcal_interrupt_manger.c: 65:     if((1 == INTCONbits.RBIE) && (1 =
      +                          = INTCONbits.RBIF)
  2136   001108  A6F2               	btfss	242,3,c	;volatile
  2137   00110A  EF89  F008         	goto	i2u268_41
  2138   00110E  EF8B  F008         	goto	i2u268_40
  2139   001112                     i2u268_41:
  2140   001112  EFA6  F008         	goto	i2l507
  2141   001116                     i2u268_40:
  2142   001116  A0F2               	btfss	242,0,c	;volatile
  2143   001118  EF90  F008         	goto	i2u269_41
  2144   00111C  EF92  F008         	goto	i2u269_40
  2145   001120                     i2u269_41:
  2146   001120  EFA6  F008         	goto	i2l507
  2147   001124                     i2u269_40:
  2148   001124  AA81               	btfss	129,5,c	;volatile
  2149   001126  EF97  F008         	goto	i2u270_41
  2150   00112A  EF99  F008         	goto	i2u270_40
  2151   00112E                     i2u270_41:
  2152   00112E  EFA6  F008         	goto	i2l507
  2153   001132                     i2u270_40:
  2154   001132  043F               	decf	_RB5_Flag^0,w,c	;volatile
  2155   001134  A4D8               	btfss	status,2,c
  2156   001136  EF9F  F008         	goto	i2u271_41
  2157   00113A  EFA1  F008         	goto	i2u271_40
  2158   00113E                     i2u271_41:
  2159   00113E  EFA6  F008         	goto	i2l507
  2160   001142                     i2u271_40:
  2161   001142                     
  2162                           ;MCAL_Layer/Interrupt/mcal_interrupt_manger.c: 67:     {;MCAL_Layer/Interrupt/mcal_inter
      +                          rupt_manger.c: 68:         RB5_Flag = 0;
  2163   001142  0E00               	movlw	0
  2164   001144  6E3F               	movwf	_RB5_Flag^0,c	;volatile
  2165   001146                     
  2166                           ;MCAL_Layer/Interrupt/mcal_interrupt_manger.c: 69:         RB5_ISR(0);
  2167   001146  0E00               	movlw	0
  2168   001148  EC2E  F00D         	call	_RB5_ISR
  2169   00114C                     i2l507:
  2170                           
  2171                           ;MCAL_Layer/Interrupt/mcal_interrupt_manger.c: 72:     if((1 == INTCONbits.RBIE) && (1 =
      +                          = INTCONbits.RBIF)
  2172   00114C  A6F2               	btfss	242,3,c	;volatile
  2173   00114E  EFAB  F008         	goto	i2u272_41
  2174   001152  EFAD  F008         	goto	i2u272_40
  2175   001156                     i2u272_41:
  2176   001156  EFC8  F008         	goto	i2l509
  2177   00115A                     i2u272_40:
  2178   00115A  A0F2               	btfss	242,0,c	;volatile
  2179   00115C  EFB2  F008         	goto	i2u273_41
  2180   001160  EFB4  F008         	goto	i2u273_40
  2181   001164                     i2u273_41:
  2182   001164  EFC8  F008         	goto	i2l509
  2183   001168                     i2u273_40:
  2184   001168  BA81               	btfsc	129,5,c	;volatile
  2185   00116A  EFB9  F008         	goto	i2u274_41
  2186   00116E  EFBB  F008         	goto	i2u274_40
  2187   001172                     i2u274_41:
  2188   001172  EFC8  F008         	goto	i2l509
  2189   001176                     i2u274_40:
  2190   001176  503F               	movf	_RB5_Flag^0,w,c	;volatile
  2191   001178  A4D8               	btfss	status,2,c
  2192   00117A  EFC1  F008         	goto	i2u275_41
  2193   00117E  EFC3  F008         	goto	i2u275_40
  2194   001182                     i2u275_41:
  2195   001182  EFC8  F008         	goto	i2l509
  2196   001186                     i2u275_40:
  2197   001186                     
  2198                           ;MCAL_Layer/Interrupt/mcal_interrupt_manger.c: 74:     {;MCAL_Layer/Interrupt/mcal_inter
      +                          rupt_manger.c: 75:         RB5_Flag = 1;
  2199   001186  0E01               	movlw	1
  2200   001188  6E3F               	movwf	_RB5_Flag^0,c	;volatile
  2201   00118A                     
  2202                           ;MCAL_Layer/Interrupt/mcal_interrupt_manger.c: 76:         RB5_ISR(1);
  2203   00118A  0E01               	movlw	1
  2204   00118C  EC2E  F00D         	call	_RB5_ISR
  2205   001190                     i2l509:
  2206                           
  2207                           ;MCAL_Layer/Interrupt/mcal_interrupt_manger.c: 80:     if((1 == INTCONbits.RBIE) && (1 =
      +                          = INTCONbits.RBIF)
  2208   001190  A6F2               	btfss	242,3,c	;volatile
  2209   001192  EFCD  F008         	goto	i2u276_41
  2210   001196  EFCF  F008         	goto	i2u276_40
  2211   00119A                     i2u276_41:
  2212   00119A  EFEA  F008         	goto	i2l511
  2213   00119E                     i2u276_40:
  2214   00119E  A0F2               	btfss	242,0,c	;volatile
  2215   0011A0  EFD4  F008         	goto	i2u277_41
  2216   0011A4  EFD6  F008         	goto	i2u277_40
  2217   0011A8                     i2u277_41:
  2218   0011A8  EFEA  F008         	goto	i2l511
  2219   0011AC                     i2u277_40:
  2220   0011AC  AC81               	btfss	129,6,c	;volatile
  2221   0011AE  EFDB  F008         	goto	i2u278_41
  2222   0011B2  EFDD  F008         	goto	i2u278_40
  2223   0011B6                     i2u278_41:
  2224   0011B6  EFEA  F008         	goto	i2l511
  2225   0011BA                     i2u278_40:
  2226   0011BA  043E               	decf	_RB6_Flag^0,w,c	;volatile
  2227   0011BC  A4D8               	btfss	status,2,c
  2228   0011BE  EFE3  F008         	goto	i2u279_41
  2229   0011C2  EFE5  F008         	goto	i2u279_40
  2230   0011C6                     i2u279_41:
  2231   0011C6  EFEA  F008         	goto	i2l511
  2232   0011CA                     i2u279_40:
  2233   0011CA                     
  2234                           ;MCAL_Layer/Interrupt/mcal_interrupt_manger.c: 82:     {;MCAL_Layer/Interrupt/mcal_inter
      +                          rupt_manger.c: 83:         RB6_Flag = 0;
  2235   0011CA  0E00               	movlw	0
  2236   0011CC  6E3E               	movwf	_RB6_Flag^0,c	;volatile
  2237   0011CE                     
  2238                           ;MCAL_Layer/Interrupt/mcal_interrupt_manger.c: 84:         RB6_ISR(0);
  2239   0011CE  0E00               	movlw	0
  2240   0011D0  EC2C  F00D         	call	_RB6_ISR
  2241   0011D4                     i2l511:
  2242                           
  2243                           ;MCAL_Layer/Interrupt/mcal_interrupt_manger.c: 87:     if((1 == INTCONbits.RBIE) && (1 =
      +                          = INTCONbits.RBIF)
  2244   0011D4  A6F2               	btfss	242,3,c	;volatile
  2245   0011D6  EFEF  F008         	goto	i2u280_41
  2246   0011DA  EFF1  F008         	goto	i2u280_40
  2247   0011DE                     i2u280_41:
  2248   0011DE  EF0C  F009         	goto	i2l513
  2249   0011E2                     i2u280_40:
  2250   0011E2  A0F2               	btfss	242,0,c	;volatile
  2251   0011E4  EFF6  F008         	goto	i2u281_41
  2252   0011E8  EFF8  F008         	goto	i2u281_40
  2253   0011EC                     i2u281_41:
  2254   0011EC  EF0C  F009         	goto	i2l513
  2255   0011F0                     i2u281_40:
  2256   0011F0  BC81               	btfsc	129,6,c	;volatile
  2257   0011F2  EFFD  F008         	goto	i2u282_41
  2258   0011F6  EFFF  F008         	goto	i2u282_40
  2259   0011FA                     i2u282_41:
  2260   0011FA  EF0C  F009         	goto	i2l513
  2261   0011FE                     i2u282_40:
  2262   0011FE  503E               	movf	_RB6_Flag^0,w,c	;volatile
  2263   001200  A4D8               	btfss	status,2,c
  2264   001202  EF05  F009         	goto	i2u283_41
  2265   001206  EF07  F009         	goto	i2u283_40
  2266   00120A                     i2u283_41:
  2267   00120A  EF0C  F009         	goto	i2l513
  2268   00120E                     i2u283_40:
  2269   00120E                     
  2270                           ;MCAL_Layer/Interrupt/mcal_interrupt_manger.c: 89:     {;MCAL_Layer/Interrupt/mcal_inter
      +                          rupt_manger.c: 90:         RB6_Flag = 1;
  2271   00120E  0E01               	movlw	1
  2272   001210  6E3E               	movwf	_RB6_Flag^0,c	;volatile
  2273   001212                     
  2274                           ;MCAL_Layer/Interrupt/mcal_interrupt_manger.c: 91:         RB6_ISR(1);
  2275   001212  0E01               	movlw	1
  2276   001214  EC2C  F00D         	call	_RB6_ISR
  2277   001218                     i2l513:
  2278                           
  2279                           ;MCAL_Layer/Interrupt/mcal_interrupt_manger.c: 95:     if((1 == INTCONbits.RBIE) && (1 =
      +                          = INTCONbits.RBIF)
  2280   001218  A6F2               	btfss	242,3,c	;volatile
  2281   00121A  EF11  F009         	goto	i2u284_41
  2282   00121E  EF13  F009         	goto	i2u284_40
  2283   001222                     i2u284_41:
  2284   001222  EF2E  F009         	goto	i2l515
  2285   001226                     i2u284_40:
  2286   001226  A0F2               	btfss	242,0,c	;volatile
  2287   001228  EF18  F009         	goto	i2u285_41
  2288   00122C  EF1A  F009         	goto	i2u285_40
  2289   001230                     i2u285_41:
  2290   001230  EF2E  F009         	goto	i2l515
  2291   001234                     i2u285_40:
  2292   001234  AE81               	btfss	129,7,c	;volatile
  2293   001236  EF1F  F009         	goto	i2u286_41
  2294   00123A  EF21  F009         	goto	i2u286_40
  2295   00123E                     i2u286_41:
  2296   00123E  EF2E  F009         	goto	i2l515
  2297   001242                     i2u286_40:
  2298   001242  043D               	decf	_RB7_Flag^0,w,c	;volatile
  2299   001244  A4D8               	btfss	status,2,c
  2300   001246  EF27  F009         	goto	i2u287_41
  2301   00124A  EF29  F009         	goto	i2u287_40
  2302   00124E                     i2u287_41:
  2303   00124E  EF2E  F009         	goto	i2l515
  2304   001252                     i2u287_40:
  2305   001252                     
  2306                           ;MCAL_Layer/Interrupt/mcal_interrupt_manger.c: 97:     {;MCAL_Layer/Interrupt/mcal_inter
      +                          rupt_manger.c: 98:         RB7_Flag = 0;
  2307   001252  0E00               	movlw	0
  2308   001254  6E3D               	movwf	_RB7_Flag^0,c	;volatile
  2309   001256                     
  2310                           ;MCAL_Layer/Interrupt/mcal_interrupt_manger.c: 99:         RB7_ISR(0);
  2311   001256  0E00               	movlw	0
  2312   001258  EC2A  F00D         	call	_RB7_ISR
  2313   00125C                     i2l515:
  2314                           
  2315                           ;MCAL_Layer/Interrupt/mcal_interrupt_manger.c: 102:     if((1 == INTCONbits.RBIE) && (1 
      +                          == INTCONbits.RBIF)
  2316   00125C  A6F2               	btfss	242,3,c	;volatile
  2317   00125E  EF33  F009         	goto	i2u288_41
  2318   001262  EF35  F009         	goto	i2u288_40
  2319   001266                     i2u288_41:
  2320   001266  EF50  F009         	goto	i2l518
  2321   00126A                     i2u288_40:
  2322   00126A  A0F2               	btfss	242,0,c	;volatile
  2323   00126C  EF3A  F009         	goto	i2u289_41
  2324   001270  EF3C  F009         	goto	i2u289_40
  2325   001274                     i2u289_41:
  2326   001274  EF50  F009         	goto	i2l518
  2327   001278                     i2u289_40:
  2328   001278  BE81               	btfsc	129,7,c	;volatile
  2329   00127A  EF41  F009         	goto	i2u290_41
  2330   00127E  EF43  F009         	goto	i2u290_40
  2331   001282                     i2u290_41:
  2332   001282  EF50  F009         	goto	i2l518
  2333   001286                     i2u290_40:
  2334   001286  503D               	movf	_RB7_Flag^0,w,c	;volatile
  2335   001288  A4D8               	btfss	status,2,c
  2336   00128A  EF49  F009         	goto	i2u291_41
  2337   00128E  EF4B  F009         	goto	i2u291_40
  2338   001292                     i2u291_41:
  2339   001292  EF50  F009         	goto	i2l518
  2340   001296                     i2u291_40:
  2341   001296                     
  2342                           ;MCAL_Layer/Interrupt/mcal_interrupt_manger.c: 104:     {;MCAL_Layer/Interrupt/mcal_inte
      +                          rrupt_manger.c: 105:         RB7_Flag = 1;
  2343   001296  0E01               	movlw	1
  2344   001298  6E3D               	movwf	_RB7_Flag^0,c	;volatile
  2345   00129A                     
  2346                           ;MCAL_Layer/Interrupt/mcal_interrupt_manger.c: 106:         RB7_ISR(1);
  2347   00129A  0E01               	movlw	1
  2348   00129C  EC2A  F00D         	call	_RB7_ISR
  2349   0012A0                     i2l518:
  2350   0012A0  C068  FFFB         	movff	??_InterruptManger+1,pclatu
  2351   0012A4  C067  FFFA         	movff	??_InterruptManger,pclath
  2352   0012A8  9279               	bcf	int$flags,1,c	;clear compiler interrupt flag (level 2)
  2353   0012AA  0011               	retfie		f
  2354   0012AC                     __end_of_InterruptManger:
  2355                           	callstack 0
  2356                           
  2357 ;; *************** function _RB7_ISR *****************
  2358 ;; Defined at:
  2359 ;;		line 516 in file "MCAL_Layer/Interrupt/mcal_external_interrupt.c"
  2360 ;; Parameters:    Size  Location     Type
  2361 ;;  RB7_source      1    wreg     unsigned char 
  2362 ;; Auto vars:     Size  Location     Type
  2363 ;;  RB7_source      1    0[COMRAM] unsigned char 
  2364 ;; Return value:  Size  Location     Type
  2365 ;;                  1    wreg      void 
  2366 ;; Registers used:
  2367 ;;		wreg
  2368 ;; Tracked objects:
  2369 ;;		On entry : 0/0
  2370 ;;		On exit  : 0/0
  2371 ;;		Unchanged: 0/0
  2372 ;; Data sizes:     COMRAM   BANK0   BANK1   BANK2   BANK3   BANK4   BANK5   BANK6   BANK7   BANK8   BANK9  BANK10  BANK1
      +1  BANK12  BANK13  BANK14  BANK15
  2373 ;;      Params:         0       0       0       0       0       0       0       0       0       0       0       0       
      +0       0       0       0       0
  2374 ;;      Locals:         1       0       0       0       0       0       0       0       0       0       0       0       
      +0       0       0       0       0
  2375 ;;      Temps:          0       0       0       0       0       0       0       0       0       0       0       0       
      +0       0       0       0       0
  2376 ;;      Totals:         1       0       0       0       0       0       0       0       0       0       0       0       
      +0       0       0       0       0
  2377 ;;Total ram usage:        1 bytes
  2378 ;; Hardware stack levels used: 1
  2379 ;; This function calls:
  2380 ;;		Nothing
  2381 ;; This function is called by:
  2382 ;;		_InterruptManger
  2383 ;; This function uses a non-reentrant model
  2384 ;;
  2385                           
  2386                           	psect	text14
  2387   001A54                     __ptext14:
  2388                           	callstack 0
  2389   001A54                     _RB7_ISR:
  2390                           	callstack 24
  2391   001A54                     
  2392                           ;MCAL_Layer/Interrupt/mcal_external_interrupt.c: 518:     (INTCONbits.RBIF = 0);
  2393   001A54  90F2               	bcf	242,0,c	;volatile
  2394   001A56  0012               	return		;funcret
  2395   001A58                     __end_of_RB7_ISR:
  2396                           	callstack 0
  2397                           
  2398 ;; *************** function _RB6_ISR *****************
  2399 ;; Defined at:
  2400 ;;		line 504 in file "MCAL_Layer/Interrupt/mcal_external_interrupt.c"
  2401 ;; Parameters:    Size  Location     Type
  2402 ;;  RB6_source      1    wreg     unsigned char 
  2403 ;; Auto vars:     Size  Location     Type
  2404 ;;  RB6_source      1    0[COMRAM] unsigned char 
  2405 ;; Return value:  Size  Location     Type
  2406 ;;                  1    wreg      void 
  2407 ;; Registers used:
  2408 ;;		wreg
  2409 ;; Tracked objects:
  2410 ;;		On entry : 0/0
  2411 ;;		On exit  : 0/0
  2412 ;;		Unchanged: 0/0
  2413 ;; Data sizes:     COMRAM   BANK0   BANK1   BANK2   BANK3   BANK4   BANK5   BANK6   BANK7   BANK8   BANK9  BANK10  BANK1
      +1  BANK12  BANK13  BANK14  BANK15
  2414 ;;      Params:         0       0       0       0       0       0       0       0       0       0       0       0       
      +0       0       0       0       0
  2415 ;;      Locals:         1       0       0       0       0       0       0       0       0       0       0       0       
      +0       0       0       0       0
  2416 ;;      Temps:          0       0       0       0       0       0       0       0       0       0       0       0       
      +0       0       0       0       0
  2417 ;;      Totals:         1       0       0       0       0       0       0       0       0       0       0       0       
      +0       0       0       0       0
  2418 ;;Total ram usage:        1 bytes
  2419 ;; Hardware stack levels used: 1
  2420 ;; This function calls:
  2421 ;;		Nothing
  2422 ;; This function is called by:
  2423 ;;		_InterruptManger
  2424 ;; This function uses a non-reentrant model
  2425 ;;
  2426                           
  2427                           	psect	text15
  2428   001A58                     __ptext15:
  2429                           	callstack 0
  2430   001A58                     _RB6_ISR:
  2431                           	callstack 24
  2432   001A58                     
  2433                           ;MCAL_Layer/Interrupt/mcal_external_interrupt.c: 506:     (INTCONbits.RBIF = 0);
  2434   001A58  90F2               	bcf	242,0,c	;volatile
  2435   001A5A  0012               	return		;funcret
  2436   001A5C                     __end_of_RB6_ISR:
  2437                           	callstack 0
  2438                           
  2439 ;; *************** function _RB5_ISR *****************
  2440 ;; Defined at:
  2441 ;;		line 492 in file "MCAL_Layer/Interrupt/mcal_external_interrupt.c"
  2442 ;; Parameters:    Size  Location     Type
  2443 ;;  RB5_source      1    wreg     unsigned char 
  2444 ;; Auto vars:     Size  Location     Type
  2445 ;;  RB5_source      1    0[COMRAM] unsigned char 
  2446 ;; Return value:  Size  Location     Type
  2447 ;;                  1    wreg      void 
  2448 ;; Registers used:
  2449 ;;		wreg
  2450 ;; Tracked objects:
  2451 ;;		On entry : 0/0
  2452 ;;		On exit  : 0/0
  2453 ;;		Unchanged: 0/0
  2454 ;; Data sizes:     COMRAM   BANK0   BANK1   BANK2   BANK3   BANK4   BANK5   BANK6   BANK7   BANK8   BANK9  BANK10  BANK1
      +1  BANK12  BANK13  BANK14  BANK15
  2455 ;;      Params:         0       0       0       0       0       0       0       0       0       0       0       0       
      +0       0       0       0       0
  2456 ;;      Locals:         1       0       0       0       0       0       0       0       0       0       0       0       
      +0       0       0       0       0
  2457 ;;      Temps:          0       0       0       0       0       0       0       0       0       0       0       0       
      +0       0       0       0       0
  2458 ;;      Totals:         1       0       0       0       0       0       0       0       0       0       0       0       
      +0       0       0       0       0
  2459 ;;Total ram usage:        1 bytes
  2460 ;; Hardware stack levels used: 1
  2461 ;; This function calls:
  2462 ;;		Nothing
  2463 ;; This function is called by:
  2464 ;;		_InterruptManger
  2465 ;; This function uses a non-reentrant model
  2466 ;;
  2467                           
  2468                           	psect	text16
  2469   001A5C                     __ptext16:
  2470                           	callstack 0
  2471   001A5C                     _RB5_ISR:
  2472                           	callstack 24
  2473   001A5C                     
  2474                           ;MCAL_Layer/Interrupt/mcal_external_interrupt.c: 494:     (INTCONbits.RBIF = 0);
  2475   001A5C  90F2               	bcf	242,0,c	;volatile
  2476   001A5E  0012               	return		;funcret
  2477   001A60                     __end_of_RB5_ISR:
  2478                           	callstack 0
  2479                           
  2480 ;; *************** function _RB4_ISR *****************
  2481 ;; Defined at:
  2482 ;;		line 479 in file "MCAL_Layer/Interrupt/mcal_external_interrupt.c"
  2483 ;; Parameters:    Size  Location     Type
  2484 ;;  RB4_source      1    wreg     unsigned char 
  2485 ;; Auto vars:     Size  Location     Type
  2486 ;;  RB4_source      1    0[COMRAM] unsigned char 
  2487 ;; Return value:  Size  Location     Type
  2488 ;;                  1    wreg      void 
  2489 ;; Registers used:
  2490 ;;		wreg
  2491 ;; Tracked objects:
  2492 ;;		On entry : 0/0
  2493 ;;		On exit  : 0/0
  2494 ;;		Unchanged: 0/0
  2495 ;; Data sizes:     COMRAM   BANK0   BANK1   BANK2   BANK3   BANK4   BANK5   BANK6   BANK7   BANK8   BANK9  BANK10  BANK1
      +1  BANK12  BANK13  BANK14  BANK15
  2496 ;;      Params:         0       0       0       0       0       0       0       0       0       0       0       0       
      +0       0       0       0       0
  2497 ;;      Locals:         1       0       0       0       0       0       0       0       0       0       0       0       
      +0       0       0       0       0
  2498 ;;      Temps:          0       0       0       0       0       0       0       0       0       0       0       0       
      +0       0       0       0       0
  2499 ;;      Totals:         1       0       0       0       0       0       0       0       0       0       0       0       
      +0       0       0       0       0
  2500 ;;Total ram usage:        1 bytes
  2501 ;; Hardware stack levels used: 1
  2502 ;; This function calls:
  2503 ;;		Nothing
  2504 ;; This function is called by:
  2505 ;;		_InterruptManger
  2506 ;; This function uses a non-reentrant model
  2507 ;;
  2508                           
  2509                           	psect	text17
  2510   001A60                     __ptext17:
  2511                           	callstack 0
  2512   001A60                     _RB4_ISR:
  2513                           	callstack 24
  2514   001A60                     
  2515                           ;MCAL_Layer/Interrupt/mcal_external_interrupt.c: 481:     (INTCONbits.RBIF = 0);
  2516   001A60  90F2               	bcf	242,0,c	;volatile
  2517   001A62  0012               	return		;funcret
  2518   001A64                     __end_of_RB4_ISR:
  2519                           	callstack 0
  2520                           
  2521 ;; *************** function _INT2_ISR *****************
  2522 ;; Defined at:
  2523 ;;		line 467 in file "MCAL_Layer/Interrupt/mcal_external_interrupt.c"
  2524 ;; Parameters:    Size  Location     Type
  2525 ;;		None
  2526 ;; Auto vars:     Size  Location     Type
  2527 ;;		None
  2528 ;; Return value:  Size  Location     Type
  2529 ;;                  1    wreg      void 
  2530 ;; Registers used:
  2531 ;;		wreg, status,2, status,0, pcl, pclath, pclatu, tosl, cstack
  2532 ;; Tracked objects:
  2533 ;;		On entry : 0/0
  2534 ;;		On exit  : 0/0
  2535 ;;		Unchanged: 0/0
  2536 ;; Data sizes:     COMRAM   BANK0   BANK1   BANK2   BANK3   BANK4   BANK5   BANK6   BANK7   BANK8   BANK9  BANK10  BANK1
      +1  BANK12  BANK13  BANK14  BANK15
  2537 ;;      Params:         0       0       0       0       0       0       0       0       0       0       0       0       
      +0       0       0       0       0
  2538 ;;      Locals:         0       0       0       0       0       0       0       0       0       0       0       0       
      +0       0       0       0       0
  2539 ;;      Temps:          0       0       0       0       0       0       0       0       0       0       0       0       
      +0       0       0       0       0
  2540 ;;      Totals:         0       0       0       0       0       0       0       0       0       0       0       0       
      +0       0       0       0       0
  2541 ;;Total ram usage:        0 bytes
  2542 ;; Hardware stack levels used: 1
  2543 ;; Hardware stack levels required when called: 2
  2544 ;; This function calls:
  2545 ;;		NULL
  2546 ;;		_INT0_App_ISR
  2547 ;; This function is called by:
  2548 ;;		_InterruptManger
  2549 ;; This function uses a non-reentrant model
  2550 ;;
  2551                           
  2552                           	psect	text18
  2553   00194E                     __ptext18:
  2554                           	callstack 0
  2555   00194E                     _INT2_ISR:
  2556                           	callstack 22
  2557   00194E                     
  2558                           ;MCAL_Layer/Interrupt/mcal_external_interrupt.c: 469:     (INTCON3bits.INT2IF = 0);
  2559   00194E  92F0               	bcf	240,1,c	;volatile
  2560   001950                     
  2561                           ;MCAL_Layer/Interrupt/mcal_external_interrupt.c: 473:     if(INT2_InterruptHandler)
  2562   001950  5055               	movf	_INT2_InterruptHandler^0,w,c
  2563   001952  1056               	iorwf	(_INT2_InterruptHandler+1)^0,w,c
  2564   001954  B4D8               	btfsc	status,2,c
  2565   001956  EFAF  F00C         	goto	i2u209_41
  2566   00195A  EFB1  F00C         	goto	i2u209_40
  2567   00195E                     i2u209_41:
  2568   00195E  EFBD  F00C         	goto	i2l686
  2569   001962                     i2u209_40:
  2570   001962                     
  2571                           ;MCAL_Layer/Interrupt/mcal_external_interrupt.c: 474:     {;MCAL_Layer/Interrupt/mcal_ex
      +                          ternal_interrupt.c: 475:         INT2_InterruptHandler();
  2572   001962  D802               	call	i2u210_48
  2573   001964  EFBD  F00C         	goto	i2u210_49
  2574   001968                     i2u210_48:
  2575   001968  0005               	push	
  2576   00196A  6EFA               	movwf	pclath,c
  2577   00196C  5055               	movf	_INT2_InterruptHandler^0,w,c
  2578   00196E  6EFD               	movwf	tosl,c
  2579   001970  5056               	movf	(_INT2_InterruptHandler+1)^0,w,c
  2580   001972  6EFE               	movwf	tosh,c
  2581   001974  6AFF               	clrf	tosu,c
  2582   001976  50FA               	movf	pclath,w,c
  2583   001978  0012               	return		;indir
  2584   00197A                     i2u210_49:
  2585   00197A                     i2l686:
  2586   00197A  0012               	return		;funcret
  2587   00197C                     __end_of_INT2_ISR:
  2588                           	callstack 0
  2589                           
  2590 ;; *************** function _INT1_ISR *****************
  2591 ;; Defined at:
  2592 ;;		line 456 in file "MCAL_Layer/Interrupt/mcal_external_interrupt.c"
  2593 ;; Parameters:    Size  Location     Type
  2594 ;;		None
  2595 ;; Auto vars:     Size  Location     Type
  2596 ;;		None
  2597 ;; Return value:  Size  Location     Type
  2598 ;;                  1    wreg      void 
  2599 ;; Registers used:
  2600 ;;		wreg, status,2, status,0, pcl, pclath, pclatu, tosl, cstack
  2601 ;; Tracked objects:
  2602 ;;		On entry : 0/0
  2603 ;;		On exit  : 0/0
  2604 ;;		Unchanged: 0/0
  2605 ;; Data sizes:     COMRAM   BANK0   BANK1   BANK2   BANK3   BANK4   BANK5   BANK6   BANK7   BANK8   BANK9  BANK10  BANK1
      +1  BANK12  BANK13  BANK14  BANK15
  2606 ;;      Params:         0       0       0       0       0       0       0       0       0       0       0       0       
      +0       0       0       0       0
  2607 ;;      Locals:         0       0       0       0       0       0       0       0       0       0       0       0       
      +0       0       0       0       0
  2608 ;;      Temps:          0       0       0       0       0       0       0       0       0       0       0       0       
      +0       0       0       0       0
  2609 ;;      Totals:         0       0       0       0       0       0       0       0       0       0       0       0       
      +0       0       0       0       0
  2610 ;;Total ram usage:        0 bytes
  2611 ;; Hardware stack levels used: 1
  2612 ;; Hardware stack levels required when called: 2
  2613 ;; This function calls:
  2614 ;;		NULL
  2615 ;;		_INT0_App_ISR
  2616 ;; This function is called by:
  2617 ;;		_InterruptManger
  2618 ;; This function uses a non-reentrant model
  2619 ;;
  2620                           
  2621                           	psect	text19
  2622   00197C                     __ptext19:
  2623                           	callstack 0
  2624   00197C                     _INT1_ISR:
  2625                           	callstack 22
  2626   00197C                     
  2627                           ;MCAL_Layer/Interrupt/mcal_external_interrupt.c: 458:     (INTCON3bits.INT1IF = 0);
  2628   00197C  90F0               	bcf	240,0,c	;volatile
  2629   00197E                     
  2630                           ;MCAL_Layer/Interrupt/mcal_external_interrupt.c: 462:     if(INT1_InterruptHandler)
  2631   00197E  5057               	movf	_INT1_InterruptHandler^0,w,c
  2632   001980  1058               	iorwf	(_INT1_InterruptHandler+1)^0,w,c
  2633   001982  B4D8               	btfsc	status,2,c
  2634   001984  EFC6  F00C         	goto	i2u207_41
  2635   001988  EFC8  F00C         	goto	i2u207_40
  2636   00198C                     i2u207_41:
  2637   00198C  EFD4  F00C         	goto	i2l682
  2638   001990                     i2u207_40:
  2639   001990                     
  2640                           ;MCAL_Layer/Interrupt/mcal_external_interrupt.c: 463:     {;MCAL_Layer/Interrupt/mcal_ex
      +                          ternal_interrupt.c: 464:         INT1_InterruptHandler();
  2641   001990  D802               	call	i2u208_48
  2642   001992  EFD4  F00C         	goto	i2u208_49
  2643   001996                     i2u208_48:
  2644   001996  0005               	push	
  2645   001998  6EFA               	movwf	pclath,c
  2646   00199A  5057               	movf	_INT1_InterruptHandler^0,w,c
  2647   00199C  6EFD               	movwf	tosl,c
  2648   00199E  5058               	movf	(_INT1_InterruptHandler+1)^0,w,c
  2649   0019A0  6EFE               	movwf	tosh,c
  2650   0019A2  6AFF               	clrf	tosu,c
  2651   0019A4  50FA               	movf	pclath,w,c
  2652   0019A6  0012               	return		;indir
  2653   0019A8                     i2u208_49:
  2654   0019A8                     i2l682:
  2655   0019A8  0012               	return		;funcret
  2656   0019AA                     __end_of_INT1_ISR:
  2657                           	callstack 0
  2658                           
  2659 ;; *************** function _INT0_ISR *****************
  2660 ;; Defined at:
  2661 ;;		line 445 in file "MCAL_Layer/Interrupt/mcal_external_interrupt.c"
  2662 ;; Parameters:    Size  Location     Type
  2663 ;;		None
  2664 ;; Auto vars:     Size  Location     Type
  2665 ;;		None
  2666 ;; Return value:  Size  Location     Type
  2667 ;;                  1    wreg      void 
  2668 ;; Registers used:
  2669 ;;		wreg, status,2, status,0, pcl, pclath, pclatu, tosl, cstack
  2670 ;; Tracked objects:
  2671 ;;		On entry : 0/0
  2672 ;;		On exit  : 0/0
  2673 ;;		Unchanged: 0/0
  2674 ;; Data sizes:     COMRAM   BANK0   BANK1   BANK2   BANK3   BANK4   BANK5   BANK6   BANK7   BANK8   BANK9  BANK10  BANK1
      +1  BANK12  BANK13  BANK14  BANK15
  2675 ;;      Params:         0       0       0       0       0       0       0       0       0       0       0       0       
      +0       0       0       0       0
  2676 ;;      Locals:         0       0       0       0       0       0       0       0       0       0       0       0       
      +0       0       0       0       0
  2677 ;;      Temps:          0       0       0       0       0       0       0       0       0       0       0       0       
      +0       0       0       0       0
  2678 ;;      Totals:         0       0       0       0       0       0       0       0       0       0       0       0       
      +0       0       0       0       0
  2679 ;;Total ram usage:        0 bytes
  2680 ;; Hardware stack levels used: 1
  2681 ;; Hardware stack levels required when called: 2
  2682 ;; This function calls:
  2683 ;;		NULL
  2684 ;;		_INT0_App_ISR
  2685 ;; This function is called by:
  2686 ;;		_InterruptManger
  2687 ;; This function uses a non-reentrant model
  2688 ;;
  2689                           
  2690                           	psect	text20
  2691   0019AA                     __ptext20:
  2692                           	callstack 0
  2693   0019AA                     _INT0_ISR:
  2694                           	callstack 22
  2695   0019AA                     
  2696                           ;MCAL_Layer/Interrupt/mcal_external_interrupt.c: 447:     (INTCONbits.INT0IF = 0);
  2697   0019AA  92F2               	bcf	242,1,c	;volatile
  2698   0019AC                     
  2699                           ;MCAL_Layer/Interrupt/mcal_external_interrupt.c: 451:     if(INT0_InterruptHandler)
  2700   0019AC  5059               	movf	_INT0_InterruptHandler^0,w,c
  2701   0019AE  105A               	iorwf	(_INT0_InterruptHandler+1)^0,w,c
  2702   0019B0  B4D8               	btfsc	status,2,c
  2703   0019B2  EFDD  F00C         	goto	i2u205_41
  2704   0019B6  EFDF  F00C         	goto	i2u205_40
  2705   0019BA                     i2u205_41:
  2706   0019BA  EFEB  F00C         	goto	i2l678
  2707   0019BE                     i2u205_40:
  2708   0019BE                     
  2709                           ;MCAL_Layer/Interrupt/mcal_external_interrupt.c: 452:     {;MCAL_Layer/Interrupt/mcal_ex
      +                          ternal_interrupt.c: 453:         INT0_InterruptHandler();
  2710   0019BE  D802               	call	i2u206_48
  2711   0019C0  EFEB  F00C         	goto	i2u206_49
  2712   0019C4                     i2u206_48:
  2713   0019C4  0005               	push	
  2714   0019C6  6EFA               	movwf	pclath,c
  2715   0019C8  5059               	movf	_INT0_InterruptHandler^0,w,c
  2716   0019CA  6EFD               	movwf	tosl,c
  2717   0019CC  505A               	movf	(_INT0_InterruptHandler+1)^0,w,c
  2718   0019CE  6EFE               	movwf	tosh,c
  2719   0019D0  6AFF               	clrf	tosu,c
  2720   0019D2  50FA               	movf	pclath,w,c
  2721   0019D4  0012               	return		;indir
  2722   0019D6                     i2u206_49:
  2723   0019D6                     i2l678:
  2724   0019D6  0012               	return		;funcret
  2725   0019D8                     __end_of_INT0_ISR:
  2726                           	callstack 0
  2727                           
  2728 ;; *************** function _INT0_App_ISR *****************
  2729 ;; Defined at:
  2730 ;;		line 12 in file "application.c"
  2731 ;; Parameters:    Size  Location     Type
  2732 ;;		None
  2733 ;; Auto vars:     Size  Location     Type
  2734 ;;		None
  2735 ;; Return value:  Size  Location     Type
  2736 ;;                  1    wreg      void 
  2737 ;; Registers used:
  2738 ;;		wreg, status,2, status,0, cstack
  2739 ;; Tracked objects:
  2740 ;;		On entry : 0/0
  2741 ;;		On exit  : 0/0
  2742 ;;		Unchanged: 0/0
  2743 ;; Data sizes:     COMRAM   BANK0   BANK1   BANK2   BANK3   BANK4   BANK5   BANK6   BANK7   BANK8   BANK9  BANK10  BANK1
      +1  BANK12  BANK13  BANK14  BANK15
  2744 ;;      Params:         0       0       0       0       0       0       0       0       0       0       0       0       
      +0       0       0       0       0
  2745 ;;      Locals:         0       0       0       0       0       0       0       0       0       0       0       0       
      +0       0       0       0       0
  2746 ;;      Temps:          0       0       0       0       0       0       0       0       0       0       0       0       
      +0       0       0       0       0
  2747 ;;      Totals:         0       0       0       0       0       0       0       0       0       0       0       0       
      +0       0       0       0       0
  2748 ;;Total ram usage:        0 bytes
  2749 ;; Hardware stack levels used: 1
  2750 ;; Hardware stack levels required when called: 1
  2751 ;; This function calls:
  2752 ;;		_Data_EEPROM_WriteByte
  2753 ;; This function is called by:
  2754 ;;		_INT0_ISR
  2755 ;;		_INT1_ISR
  2756 ;;		_INT2_ISR
  2757 ;; This function uses a non-reentrant model
  2758 ;;
  2759                           
  2760                           	psect	text21
  2761   0019D8                     __ptext21:
  2762                           	callstack 0
  2763   0019D8                     _INT0_App_ISR:
  2764                           	callstack 22
  2765   0019D8                     
  2766                           ;application.c: 13:     program_counter++;
  2767   0019D8  2A5B               	incf	_program_counter^0,f,c	;volatile
  2768   0019DA                     
  2769                           ;application.c: 14:     if(3 == program_counter)
  2770   0019DA  0E03               	movlw	3
  2771   0019DC  185B               	xorwf	_program_counter^0,w,c	;volatile
  2772   0019DE  A4D8               	btfss	status,2,c
  2773   0019E0  EFF4  F00C         	goto	i2u196_41
  2774   0019E4  EFF6  F00C         	goto	i2u196_40
  2775   0019E8                     i2u196_41:
  2776   0019E8  EFF8  F00C         	goto	i2l3104
  2777   0019EC                     i2u196_40:
  2778   0019EC                     
  2779                           ;application.c: 15:     {;application.c: 16:         program_counter =0;
  2780   0019EC  0E00               	movlw	0
  2781   0019EE  6E5B               	movwf	_program_counter^0,c	;volatile
  2782   0019F0                     i2l3104:
  2783                           
  2784                           ;application.c: 18:     ret = Data_EEPROM_WriteByte(0x03FF, program_counter);
  2785   0019F0  0E03               	movlw	3
  2786   0019F2  6E64               	movwf	(Data_EEPROM_WriteByte@bAdd+1)^0,c
  2787   0019F4  6863               	setf	Data_EEPROM_WriteByte@bAdd^0,c
  2788   0019F6  C05B  F065         	movff	_program_counter,Data_EEPROM_WriteByte@bData	;volatile
  2789   0019FA  EC09  F00C         	call	_Data_EEPROM_WriteByte	;wreg free
  2790   0019FE  6E78               	movwf	_ret^0,c
  2791   001A00  0012               	return		;funcret
  2792   001A02                     __end_of_INT0_App_ISR:
  2793                           	callstack 0
  2794                           
  2795 ;; *************** function _Data_EEPROM_WriteByte *****************
  2796 ;; Defined at:
  2797 ;;		line 10 in file "MCAL_Layer/EEPROM/hal_eeprom.c"
  2798 ;; Parameters:    Size  Location     Type
  2799 ;;  bAdd            2    0[COMRAM] unsigned short 
  2800 ;;  bData           1    2[COMRAM] unsigned char 
  2801 ;; Auto vars:     Size  Location     Type
  2802 ;;  Data_Interru    1    3[COMRAM] unsigned char 
  2803 ;;  ret             1    0        unsigned char 
  2804 ;; Return value:  Size  Location     Type
  2805 ;;                  1    wreg      unsigned char 
  2806 ;; Registers used:
  2807 ;;		wreg, status,2, status,0
  2808 ;; Tracked objects:
  2809 ;;		On entry : 0/0
  2810 ;;		On exit  : 0/0
  2811 ;;		Unchanged: 0/0
  2812 ;; Data sizes:     COMRAM   BANK0   BANK1   BANK2   BANK3   BANK4   BANK5   BANK6   BANK7   BANK8   BANK9  BANK10  BANK1
      +1  BANK12  BANK13  BANK14  BANK15
  2813 ;;      Params:         3       0       0       0       0       0       0       0       0       0       0       0       
      +0       0       0       0       0
  2814 ;;      Locals:         1       0       0       0       0       0       0       0       0       0       0       0       
      +0       0       0       0       0
  2815 ;;      Temps:          0       0       0       0       0       0       0       0       0       0       0       0       
      +0       0       0       0       0
  2816 ;;      Totals:         4       0       0       0       0       0       0       0       0       0       0       0       
      +0       0       0       0       0
  2817 ;;Total ram usage:        4 bytes
  2818 ;; Hardware stack levels used: 1
  2819 ;; This function calls:
  2820 ;;		Nothing
  2821 ;; This function is called by:
  2822 ;;		_INT0_App_ISR
  2823 ;; This function uses a non-reentrant model
  2824 ;;
  2825                           
  2826                           	psect	text22
  2827   001812                     __ptext22:
  2828                           	callstack 0
  2829   001812                     _Data_EEPROM_WriteByte:
  2830                           	callstack 22
  2831   001812                     
  2832                           ;MCAL_Layer/EEPROM/hal_eeprom.c: 13:     uint8 Data_Interrupts_Staus = INTCONbits.GIE;
  2833   001812  0E00               	movlw	0
  2834   001814  BEF2               	btfsc	242,7,c	;volatile
  2835   001816  0E01               	movlw	1
  2836   001818  6E66               	movwf	Data_EEPROM_WriteByte@Data_Interrupts_Staus^0,c
  2837   00181A                     
  2838                           ;MCAL_Layer/EEPROM/hal_eeprom.c: 15:     EEADRH = (uint8)((bAdd >> 8) & 0x03);
  2839   00181A  5064               	movf	(Data_EEPROM_WriteByte@bAdd+1)^0,w,c
  2840   00181C  0B03               	andlw	3
  2841   00181E  6EAA               	movwf	170,c	;volatile
  2842   001820                     
  2843                           ;MCAL_Layer/EEPROM/hal_eeprom.c: 16:     EEADR = (uint8)(bAdd & 0xFF);
  2844   001820  C063  FFA9         	movff	Data_EEPROM_WriteByte@bAdd,4009	;volatile
  2845   001824                     
  2846                           ;MCAL_Layer/EEPROM/hal_eeprom.c: 18:     EEDATA = bData;
  2847   001824  C065  FFA8         	movff	Data_EEPROM_WriteByte@bData,4008	;volatile
  2848   001828                     
  2849                           ;MCAL_Layer/EEPROM/hal_eeprom.c: 20:     EECON1bits.EEPGD = 0;
  2850   001828  9EA6               	bcf	166,7,c	;volsfr
  2851   00182A                     
  2852                           ;MCAL_Layer/EEPROM/hal_eeprom.c: 21:     EECON1bits.CFGS = 0;
  2853   00182A  9CA6               	bcf	166,6,c	;volsfr
  2854   00182C                     
  2855                           ;MCAL_Layer/EEPROM/hal_eeprom.c: 23:     EECON1bits.WREN = 1;
  2856   00182C  84A6               	bsf	166,2,c	;volsfr
  2857   00182E                     
  2858                           ;MCAL_Layer/EEPROM/hal_eeprom.c: 25:     (INTCONbits.GIE = 0);
  2859   00182E  9EF2               	bcf	242,7,c	;volatile
  2860   001830                     
  2861                           ;MCAL_Layer/EEPROM/hal_eeprom.c: 27:     EECON2 = 0x55;
  2862   001830  0E55               	movlw	85
  2863   001832  6EA7               	movwf	167,c	;volsfr
  2864   001834                     
  2865                           ;MCAL_Layer/EEPROM/hal_eeprom.c: 28:     EECON2 = 0xAA;
  2866   001834  0EAA               	movlw	170
  2867   001836  6EA7               	movwf	167,c	;volsfr
  2868   001838                     
  2869                           ;MCAL_Layer/EEPROM/hal_eeprom.c: 30:     EECON1bits.WR = 1;
  2870   001838  82A6               	bsf	166,1,c	;volsfr
  2871   00183A                     i2l789:
  2872   00183A  B2A6               	btfsc	166,1,c	;volsfr
  2873   00183C  EF22  F00C         	goto	i2u185_41
  2874   001840  EF24  F00C         	goto	i2u185_40
  2875   001844                     i2u185_41:
  2876   001844  EF1D  F00C         	goto	i2l789
  2877   001848                     i2u185_40:
  2878   001848                     
  2879                           ;MCAL_Layer/EEPROM/hal_eeprom.c: 34:     EECON1bits.WREN = 0;
  2880   001848  94A6               	bcf	166,2,c	;volsfr
  2881                           
  2882                           ;MCAL_Layer/EEPROM/hal_eeprom.c: 36:     INTCONbits.GIE = Data_Interrupts_Staus;
  2883   00184A  B066               	btfsc	Data_EEPROM_WriteByte@Data_Interrupts_Staus^0,0,c
  2884   00184C  D002               	bra	i2u186_45
  2885   00184E  9EF2               	bcf	242,7,c	;volatile
  2886   001850  D001               	bra	i2u186_46
  2887   001852                     i2u186_45:
  2888   001852  8EF2               	bsf	242,7,c	;volatile
  2889   001854                     i2u186_46:
  2890   001854                     
  2891                           ;MCAL_Layer/EEPROM/hal_eeprom.c: 37:     return ret;
  2892   001854  0E01               	movlw	1
  2893   001856  0012               	return		;funcret
  2894   001858                     __end_of_Data_EEPROM_WriteByte:
  2895                           	callstack 0
  2896                           
  2897                           	psect	text23
  2898   000000                     __ptext23:
  2899                           	callstack 0
  2900   000000                     
  2901                           	psect	rparam
  2902   000000                     
  2903                           	psect	temp
  2904   000079                     btemp:
  2905                           	callstack 0
  2906   000079                     	ds	1
  2907   000000                     int$flags	set	btemp
  2908   000000                     wtemp8	set	btemp+1
  2909   000000                     ttemp5	set	btemp+1
  2910   000000                     ttemp6	set	btemp+4
  2911   000000                     ttemp7	set	btemp+8
  2912                           
  2913                           	psect	config
  2914                           
  2915                           ; Padding undefined space
  2916   300000                     	org	3145728
  2917   300000  FF                 	db	255
  2918                           
  2919                           ;Config register CONFIG1H @ 0x300001
  2920                           ;	Oscillator Selection bits
  2921                           ;	OSC = HS, HS oscillator
  2922                           ;	Fail-Safe Clock Monitor Enable bit
  2923                           ;	FCMEN = OFF, Fail-Safe Clock Monitor disabled
  2924                           ;	Internal/External Oscillator Switchover bit
  2925                           ;	IESO = OFF, Oscillator Switchover mode disabled
  2926   300001                     	org	3145729
  2927   300001  02                 	db	2
  2928                           
  2929                           ;Config register CONFIG2L @ 0x300002
  2930                           ;	Power-up Timer Enable bit
  2931                           ;	PWRT = OFF, PWRT disabled
  2932                           ;	Brown-out Reset Enable bits
  2933                           ;	BOREN = OFF, Brown-out Reset disabled in hardware and software
  2934                           ;	Brown Out Reset Voltage bits
  2935                           ;	BORV = 1, 
  2936   300002                     	org	3145730
  2937   300002  09                 	db	9
  2938                           
  2939                           ;Config register CONFIG2H @ 0x300003
  2940                           ;	Watchdog Timer Enable bit
  2941                           ;	WDT = OFF, WDT disabled (control is placed on the SWDTEN bit)
  2942                           ;	Watchdog Timer Postscale Select bits
  2943                           ;	WDTPS = 32768, 1:32768
  2944   300003                     	org	3145731
  2945   300003  1E                 	db	30
  2946                           
  2947                           ; Padding undefined space
  2948   300004                     	org	3145732
  2949   300004  FF                 	db	255
  2950                           
  2951                           ;Config register CONFIG3H @ 0x300005
  2952                           ;	CCP2 MUX bit
  2953                           ;	CCP2MX = PORTC, CCP2 input/output is multiplexed with RC1
  2954                           ;	PORTB A/D Enable bit
  2955                           ;	PBADEN = OFF, PORTB<4:0> pins are configured as digital I/O on Reset
  2956                           ;	Low-Power Timer1 Oscillator Enable bit
  2957                           ;	LPT1OSC = OFF, Timer1 configured for higher power operation
  2958                           ;	MCLR Pin Enable bit
  2959                           ;	MCLRE = ON, MCLR pin enabled; RE3 input pin disabled
  2960   300005                     	org	3145733
  2961   300005  81                 	db	129
  2962                           
  2963                           ;Config register CONFIG4L @ 0x300006
  2964                           ;	Stack Full/Underflow Reset Enable bit
  2965                           ;	STVREN = ON, Stack full/underflow will cause Reset
  2966                           ;	Single-Supply ICSP Enable bit
  2967                           ;	LVP = OFF, Single-Supply ICSP disabled
  2968                           ;	Extended Instruction Set Enable bit
  2969                           ;	XINST = OFF, Instruction set extension and Indexed Addressing mode disabled (Legacy mo
      +                          de)
  2970                           ;	Background Debugger Enable bit
  2971                           ;	DEBUG = 0x1, unprogrammed default
  2972   300006                     	org	3145734
  2973   300006  81                 	db	129
  2974                           
  2975                           ; Padding undefined space
  2976   300007                     	org	3145735
  2977   300007  FF                 	db	255
  2978                           
  2979                           ;Config register CONFIG5L @ 0x300008
  2980                           ;	Code Protection bit
  2981                           ;	CP0 = OFF, Block 0 (000800-003FFFh) not code-protected
  2982                           ;	Code Protection bit
  2983                           ;	CP1 = OFF, Block 1 (004000-007FFFh) not code-protected
  2984                           ;	Code Protection bit
  2985                           ;	CP2 = OFF, Block 2 (008000-00BFFFh) not code-protected
  2986                           ;	Code Protection bit
  2987                           ;	CP3 = OFF, Block 3 (00C000-00FFFFh) not code-protected
  2988   300008                     	org	3145736
  2989   300008  0F                 	db	15
  2990                           
  2991                           ;Config register CONFIG5H @ 0x300009
  2992                           ;	Boot Block Code Protection bit
  2993                           ;	CPB = OFF, Boot block (000000-0007FFh) not code-protected
  2994                           ;	Data EEPROM Code Protection bit
  2995                           ;	CPD = OFF, Data EEPROM not code-protected
  2996   300009                     	org	3145737
  2997   300009  C0                 	db	192
  2998                           
  2999                           ;Config register CONFIG6L @ 0x30000A
  3000                           ;	Write Protection bit
  3001                           ;	WRT0 = OFF, Block 0 (000800-003FFFh) not write-protected
  3002                           ;	Write Protection bit
  3003                           ;	WRT1 = OFF, Block 1 (004000-007FFFh) not write-protected
  3004                           ;	Write Protection bit
  3005                           ;	WRT2 = OFF, Block 2 (008000-00BFFFh) not write-protected
  3006                           ;	Write Protection bit
  3007                           ;	WRT3 = OFF, Block 3 (00C000-00FFFFh) not write-protected
  3008   30000A                     	org	3145738
  3009   30000A  0F                 	db	15
  3010                           
  3011                           ;Config register CONFIG6H @ 0x30000B
  3012                           ;	Configuration Register Write Protection bit
  3013                           ;	WRTC = OFF, Configuration registers (300000-3000FFh) not write-protected
  3014                           ;	Boot Block Write Protection bit
  3015                           ;	WRTB = OFF, Boot Block (000000-0007FFh) not write-protected
  3016                           ;	Data EEPROM Write Protection bit
  3017                           ;	WRTD = OFF, Data EEPROM not write-protected
  3018   30000B                     	org	3145739
  3019   30000B  E0                 	db	224
  3020                           
  3021                           ;Config register CONFIG7L @ 0x30000C
  3022                           ;	Table Read Protection bit
  3023                           ;	EBTR0 = OFF, Block 0 (000800-003FFFh) not protected from table reads executed in other
      +                           blocks
  3024                           ;	Table Read Protection bit
  3025                           ;	EBTR1 = OFF, Block 1 (004000-007FFFh) not protected from table reads executed in other
      +                           blocks
  3026                           ;	Table Read Protection bit
  3027                           ;	EBTR2 = OFF, Block 2 (008000-00BFFFh) not protected from table reads executed in other
      +                           blocks
  3028                           ;	Table Read Protection bit
  3029                           ;	EBTR3 = OFF, Block 3 (00C000-00FFFFh) not protected from table reads executed in other
      +                           blocks
  3030   30000C                     	org	3145740
  3031   30000C  0F                 	db	15
  3032                           
  3033                           ;Config register CONFIG7H @ 0x30000D
  3034                           ;	Boot Block Table Read Protection bit
  3035                           ;	EBTRB = OFF, Boot Block (000000-0007FFh) not protected from table reads executed in ot
      +                          her blocks
  3036   30000D                     	org	3145741
  3037   30000D  40                 	db	64
  3038                           tosu	equ	0xFFF
  3039                           tosh	equ	0xFFE
  3040                           tosl	equ	0xFFD
  3041                           stkptr	equ	0xFFC
  3042                           pclatu	equ	0xFFB
  3043                           pclath	equ	0xFFA
  3044                           pcl	equ	0xFF9
  3045                           tblptru	equ	0xFF8
  3046                           tblptrh	equ	0xFF7
  3047                           tblptrl	equ	0xFF6
  3048                           tablat	equ	0xFF5
  3049                           prodh	equ	0xFF4
  3050                           prodl	equ	0xFF3
  3051                           indf0	equ	0xFEF
  3052                           postinc0	equ	0xFEE
  3053                           postdec0	equ	0xFED
  3054                           preinc0	equ	0xFEC
  3055                           plusw0	equ	0xFEB
  3056                           fsr0h	equ	0xFEA
  3057                           fsr0l	equ	0xFE9
  3058                           wreg	equ	0xFE8
  3059                           indf1	equ	0xFE7
  3060                           postinc1	equ	0xFE6
  3061                           postdec1	equ	0xFE5
  3062                           preinc1	equ	0xFE4
  3063                           plusw1	equ	0xFE3
  3064                           fsr1h	equ	0xFE2
  3065                           fsr1l	equ	0xFE1
  3066                           bsr	equ	0xFE0
  3067                           indf2	equ	0xFDF
  3068                           postinc2	equ	0xFDE
  3069                           postdec2	equ	0xFDD
  3070                           preinc2	equ	0xFDC
  3071                           plusw2	equ	0xFDB
  3072                           fsr2h	equ	0xFDA
  3073                           fsr2l	equ	0xFD9
  3074                           status	equ	0xFD8

Data Sizes:
    Strings     3
    Constant    16
    Data        68
    BSS         30
    Persistent  1
    Stack       0

Auto Spaces:
    Space          Size  Autos    Used
    COMRAM          126     21     120
    BANK0           128      6       6
    BANK1           256      0       0
    BANK2           256      0       0
    BANK3           256      0       0
    BANK4           256      0       0
    BANK5           256      0       0
    BANK6           256      0       0
    BANK7           256      0       0
    BANK8           256      0       0
    BANK9           256      0       0
    BANK10          256      0       0
    BANK11          256      0       0
    BANK12          256      0       0
    BANK13          256      0       0
    BANK14          256      0       0
    BANK15          128      0       0

Pointer List with Targets:

    vfprintf$2	PTR PTR void  size(2) Largest target is 2
		 -> sprintf@ap(COMRAM[2]), 

    vfprintf$1	PTR const unsigned char  size(2) Largest target is 3
		 -> STR_3(CODE[3]), STR_2(CODE[3]), STR_1(CODE[3]), 

    vfprintf$0	PTR struct _IO_FILE size(2) Largest target is 12
		 -> sprintf@f(COMRAM[12]), 

    S2000$source	PTR const unsigned char  size(2) Largest target is 0

    f...source	PTR const unsigned char  size(2) Largest target is 0

    S2000$buffer	PTR unsigned char  size(2) Largest target is 0

    f...buffer	PTR unsigned char  size(2) Largest target is 0

    Data_EEPROM_ReadByte@bData	PTR unsigned char  size(2) Largest target is 3967
		 -> RAM(DATA[3967]), 

    int0_obj.EXT_InterruptHandler	PTR FTN()void  size(2) Largest target is 1
		 -> INT0_App_ISR(), 

    Interrupt_INTx_SetInterruptHandler@int_obj.EXT_InterruptHandler	PTR FTN()void  size(2) Largest target is 1
		 -> INT0_App_ISR(), 

    INT2_InterruptHandler	PTR FTN()void  size(2) Largest target is 1
		 -> INT0_App_ISR(), NULL(), 

    INT1_InterruptHandler	PTR FTN()void  size(2) Largest target is 1
		 -> INT0_App_ISR(), NULL(), 

    INT0_InterruptHandler	PTR FTN()void  size(2) Largest target is 1
		 -> INT0_App_ISR(), NULL(), 

    Interrupt_INTx_ClearFlag@int_obj.EXT_InterruptHandler	PTR FTN()void  size(2) Largest target is 1
		 -> INT0_App_ISR(), 

    Interrupt_INTx_Pin_Init@int_obj.EXT_InterruptHandler	PTR FTN()void  size(2) Largest target is 1
		 -> INT0_App_ISR(), 

    Interrupt_INTx_Edge_Init@int_obj.EXT_InterruptHandler	PTR FTN()void  size(2) Largest target is 1
		 -> INT0_App_ISR(), 

    Interrupt_INTx_Disable@int_obj.EXT_InterruptHandler	PTR FTN()void  size(2) Largest target is 1
		 -> INT0_App_ISR(), 

    S1069$EXT_InterruptHandler	PTR FTN()void  size(2) Largest target is 1
		 -> INT0_App_ISR(), 

    Interrupt_INTx_Enable@int_obj.EXT_InterruptHandler	PTR FTN()void  size(2) Largest target is 1
		 -> INT0_App_ISR(), 

    RB7_InterruptHandler_Low	PTR FTN()void  size(2) Largest target is 1
		 -> NULL(), 

    RB7_InterruptHandler_High	PTR FTN()void  size(2) Largest target is 1
		 -> NULL(), 

    RB6_InterruptHandler_Low	PTR FTN()void  size(2) Largest target is 1
		 -> NULL(), 

    RB6_InterruptHandler_High	PTR FTN()void  size(2) Largest target is 1
		 -> NULL(), 

    RB5_InterruptHandler_Low	PTR FTN()void  size(2) Largest target is 1
		 -> NULL(), 

    RB5_InterruptHandler_High	PTR FTN()void  size(2) Largest target is 1
		 -> NULL(), 

    RB4_InterruptHandler_Low	PTR FTN()void  size(2) Largest target is 1
		 -> NULL(), 

    RB4_InterruptHandler_High	PTR FTN()void  size(2) Largest target is 1
		 -> NULL(), 

    S1107$EXT_InterruptHandler_Low	PTR FTN()void  size(2) Largest target is 0

    Interrupt_RBx_Init@int_obj.EXT_InterruptHandler_Low	PTR FTN()void  size(2) Largest target is 0

    S1107$EXT_InterruptHandler_High	PTR FTN()void  size(2) Largest target is 0

    Interrupt_RBx_Init@int_obj.EXT_InterruptHandler_High	PTR FTN()void  size(2) Largest target is 0

    gpio_pin_initialize@_pin_config	PTR const struct . size(2) Largest target is 1
		 -> relay_intialize@pin_obj(COMRAM[1]), led_intialize@pin_obj(BANK0[1]), 

    gpio_pin_toggle_logic@_pin_config	PTR const struct . size(2) Largest target is 1
		 -> led_toggle@pin_obj(COMRAM[1]), 

    gpio_pin_write_logic@_pin_config	PTR const struct . size(2) Largest target is 1
		 -> relay_turn_off@pin_obj(COMRAM[1]), relay_turn_on@pin_obj(COMRAM[1]), relay_intialize@pin_obj(COMRAM[1]), led_turn_on@pin_obj(COMRAM[1]), 
		 -> led_turn_off@pin_obj(COMRAM[1]), led_intialize@pin_obj(BANK0[1]), 

    gpio_pin_direction_initialize@_pin_config	PTR const struct . size(2) Largest target is 1
		 -> relay_intialize@pin_obj(COMRAM[1]), led_intialize@pin_obj(BANK0[1]), 

    port_registers	PTR volatile unsigned char [5] size(2) Largest target is 1
		 -> PORTE(BITBIGSFRll[1]), PORTD(BITBIGSFRll[1]), PORTC(BITBIGSFRll[1]), PORTB(BITBIGSFRll[1]), 
		 -> PORTA(BITBIGSFRll[1]), 

    lat_registers	PTR volatile unsigned char [5] size(2) Largest target is 1
		 -> LATE(BITBIGSFRlh[1]), LATD(BITBIGSFRlh[1]), LATC(BITBIGSFRlh[1]), LATB(BITBIGSFRlh[1]), 
		 -> LATA(BITBIGSFRll[1]), 

    tris_registers	PTR volatile unsigned char [5] size(2) Largest target is 1
		 -> TRISE(BITBIGSFRhllll[1]), TRISD(BITBIGSFRhllll[1]), TRISC(BITBIGSFRhllll[1]), TRISB(BITBIGSFRhllll[1]), 
		 -> TRISA(BITBIGSFRll[1]), 

    led_toggle@led	PTR const struct . size(2) Largest target is 1
		 -> led_2(COMRAM[1]), led_1(COMRAM[1]), 

    led_turn_off@led	PTR const struct . size(2) Largest target is 1
		 -> led_2(COMRAM[1]), led_1(COMRAM[1]), 

    led_intialize@led	PTR const struct . size(2) Largest target is 1
		 -> led_4(COMRAM[1]), led_3(COMRAM[1]), led_2(COMRAM[1]), led_1(COMRAM[1]), 

    sp__memset	PTR void  size(2) Largest target is 0


Critical Paths under _main in COMRAM

    _main->_led_turn_off
    _main->_program1
    _main->_program2
    _program2->_led_toggle
    _program1->_led_toggle
    _led_toggle->_gpio_pin_toggle_logic
    _led_turn_off->_gpio_pin_write_logic
    _Ecu_interfaces_initialize->_led_intialize
    _led_intialize->_gpio_pin_initialize
    _gpio_pin_initialize->_gpio_pin_write_logic

Critical Paths under _InterruptManger in COMRAM

    _INT0_App_ISR->_Data_EEPROM_WriteByte

Critical Paths under _main in BANK0

    _Ecu_interfaces_initialize->_led_intialize

Critical Paths under _InterruptManger in BANK0

    None.

Critical Paths under _main in BANK1

    None.

Critical Paths under _InterruptManger in BANK1

    None.

Critical Paths under _main in BANK2

    None.

Critical Paths under _InterruptManger in BANK2

    None.

Critical Paths under _main in BANK3

    None.

Critical Paths under _InterruptManger in BANK3

    None.

Critical Paths under _main in BANK4

    None.

Critical Paths under _InterruptManger in BANK4

    None.

Critical Paths under _main in BANK5

    None.

Critical Paths under _InterruptManger in BANK5

    None.

Critical Paths under _main in BANK6

    None.

Critical Paths under _InterruptManger in BANK6

    None.

Critical Paths under _main in BANK7

    None.

Critical Paths under _InterruptManger in BANK7

    None.

Critical Paths under _main in BANK8

    None.

Critical Paths under _InterruptManger in BANK8

    None.

Critical Paths under _main in BANK9

    None.

Critical Paths under _InterruptManger in BANK9

    None.

Critical Paths under _main in BANK10

    None.

Critical Paths under _InterruptManger in BANK10

    None.

Critical Paths under _main in BANK11

    None.

Critical Paths under _InterruptManger in BANK11

    None.

Critical Paths under _main in BANK12

    None.

Critical Paths under _InterruptManger in BANK12

    None.

Critical Paths under _main in BANK13

    None.

Critical Paths under _InterruptManger in BANK13

    None.

Critical Paths under _main in BANK14

    None.

Critical Paths under _InterruptManger in BANK14

    None.

Critical Paths under _main in BANK15

    None.

Critical Paths under _InterruptManger in BANK15

    None.

Call Graph Tables:

 ---------------------------------------------------------------------------------
 (Depth) Function   	        Calls       Base Space   Used Autos Params    Refs
 ---------------------------------------------------------------------------------
 (0) _main                                                 2     2      0   16182
                                              4 BANK0      2     2      0
               _Data_EEPROM_ReadByte
             _application_initialize
                       _led_turn_off
                           _program1
                           _program2
 ---------------------------------------------------------------------------------
 (1) _program2                                             2     2      0     483
                                             19 COMRAM     2     2      0
                         _led_toggle
 ---------------------------------------------------------------------------------
 (1) _program1                                             2     2      0     483
                                             19 COMRAM     2     2      0
                         _led_toggle
 ---------------------------------------------------------------------------------
 (2) _led_toggle                                           5     3      2     483
                                             14 COMRAM     5     3      2
              _gpio_pin_toggle_logic
 ---------------------------------------------------------------------------------
 (3) _gpio_pin_toggle_logic                                8     6      2     188
                                              6 COMRAM     8     6      2
 ---------------------------------------------------------------------------------
 (1) _led_turn_off                                         5     3      2    6239
                                             16 COMRAM     5     3      2
               _gpio_pin_write_logic
 ---------------------------------------------------------------------------------
 (1) _application_initialize                               0     0      0    8713
          _Ecu_interfaces_initialize
 ---------------------------------------------------------------------------------
 (2) _Ecu_interfaces_initialize                            1     1      0    8713
                      _led_intialize
 ---------------------------------------------------------------------------------
 (3) _led_intialize                                        5     3      2    8698
                                             20 COMRAM     1     1      0
                                              0 BANK0      4     2      2
                _gpio_pin_initialize
 ---------------------------------------------------------------------------------
 (4) _gpio_pin_initialize                                  4     2      2    8089
                                             16 COMRAM     4     2      2
      _gpio_pin_direction_initialize
               _gpio_pin_write_logic
 ---------------------------------------------------------------------------------
 (2) _gpio_pin_write_logic                                10     7      3    5834
                                              6 COMRAM    10     7      3
 ---------------------------------------------------------------------------------
 (5) _gpio_pin_direction_initialize                        9     7      2     707
                                              6 COMRAM     9     7      2
 ---------------------------------------------------------------------------------
 (1) _Data_EEPROM_ReadByte                                 5     1      4     264
                                              6 COMRAM     5     1      4
 ---------------------------------------------------------------------------------
 Estimated maximum stack depth 5
 ---------------------------------------------------------------------------------
 (Depth) Function   	        Calls       Base Space   Used Autos Params    Refs
 ---------------------------------------------------------------------------------
 (6) _InterruptManger                                      2     2      0     912
                                              4 COMRAM     2     2      0
                           _INT0_ISR
                           _INT1_ISR
                           _INT2_ISR
                            _RB4_ISR
                            _RB5_ISR
                            _RB6_ISR
                            _RB7_ISR
 ---------------------------------------------------------------------------------
 (7) _RB7_ISR                                              1     1      0      30
                                              0 COMRAM     1     1      0
 ---------------------------------------------------------------------------------
 (7) _RB6_ISR                                              1     1      0      30
                                              0 COMRAM     1     1      0
 ---------------------------------------------------------------------------------
 (7) _RB5_ISR                                              1     1      0      30
                                              0 COMRAM     1     1      0
 ---------------------------------------------------------------------------------
 (7) _RB4_ISR                                              1     1      0      30
                                              0 COMRAM     1     1      0
 ---------------------------------------------------------------------------------
 (7) _INT2_ISR                                             0     0      0     264
                                NULL *
                       _INT0_App_ISR *
 ---------------------------------------------------------------------------------
 (7) _INT1_ISR                                             0     0      0     264
                                NULL *
                       _INT0_App_ISR *
 ---------------------------------------------------------------------------------
 (7) _INT0_ISR                                             0     0      0     264
                                NULL *
                       _INT0_App_ISR *
 ---------------------------------------------------------------------------------
 (8) _INT0_App_ISR                                         0     0      0     264
              _Data_EEPROM_WriteByte
 ---------------------------------------------------------------------------------
 (9) _Data_EEPROM_WriteByte                                5     2      3     264
                                              0 COMRAM     4     1      3
 ---------------------------------------------------------------------------------
 (8) NULL(Fake)                                            0     0      0       0
 ---------------------------------------------------------------------------------
 Estimated maximum stack depth 9
 ---------------------------------------------------------------------------------

 Call Graph Graphs:

 _main (ROOT)
   _Data_EEPROM_ReadByte
   _application_initialize
     _Ecu_interfaces_initialize
       _led_intialize
         _gpio_pin_initialize
           _gpio_pin_direction_initialize
           _gpio_pin_write_logic
   _led_turn_off
     _gpio_pin_write_logic
   _program1
     _led_toggle
       _gpio_pin_toggle_logic
   _program2
     _led_toggle

 _InterruptManger (ROOT)
   _INT0_ISR
     NULL(Fake) *
     _INT0_App_ISR *
       _Data_EEPROM_WriteByte
   _INT1_ISR
     NULL(Fake) *
     _INT0_App_ISR *
   _INT2_ISR
     NULL(Fake) *
     _INT0_App_ISR *
   _RB4_ISR
   _RB5_ISR
   _RB6_ISR
   _RB7_ISR

 Address spaces:
Name               Size   Autos  Total    Cost      Usage
BIGRAM             F7F      0       0      42        0.0%
EEDATA             400      0       0       0        0.0%
BITBANK14          100      0       0      32        0.0%
BANK14             100      0       0      33        0.0%
BITBANK13          100      0       0      30        0.0%
BANK13             100      0       0      31        0.0%
BITBANK12          100      0       0      28        0.0%
BANK12             100      0       0      29        0.0%
BITBANK11          100      0       0      26        0.0%
BANK11             100      0       0      27        0.0%
BITBANK10          100      0       0      24        0.0%
BANK10             100      0       0      25        0.0%
BITBANK9           100      0       0      22        0.0%
BANK9              100      0       0      23        0.0%
BITBANK8           100      0       0      20        0.0%
BANK8              100      0       0      21        0.0%
BITBANK7           100      0       0      18        0.0%
BANK7              100      0       0      19        0.0%
BITBANK6           100      0       0      16        0.0%
BANK6              100      0       0      17        0.0%
BITBANK5           100      0       0      14        0.0%
BANK5              100      0       0      15        0.0%
BITBANK4           100      0       0      12        0.0%
BANK4              100      0       0      13        0.0%
BITBANK3           100      0       0      10        0.0%
BANK3              100      0       0      11        0.0%
BITBANK2           100      0       0       8        0.0%
BANK2              100      0       0       9        0.0%
BITBANK1           100      0       0       6        0.0%
BANK1              100      0       0       7        0.0%
BITBANK15           80      0       0      34        0.0%
BANK15              80      0       0      35        0.0%
BITBANK0            80      0       0       4        0.0%
BANK0               80      6       6       5        4.7%
BITCOMRAM           7E      0       0       0        0.0%
COMRAM              7E     15      78       1       95.2%
BITBIGSFRhllh       45      0       0      37        0.0%
BITBIGSFRhllll       F      0       0      38        0.0%
BITBIGSFRhh          D      0       0      36        0.0%
BITBIGSFRlh          4      0       0      39        0.0%
BITBIGSFRll          4      0       0      40        0.0%
BIGSFR               0      0       0     200        0.0%
BITSFR               0      0       0     200        0.0%
SFR                  0      0       0     200        0.0%
STACK                0      0       0       2        0.0%
NULL                 0      0       0       0        0.0%
ABS                  0      0      7E      41        0.0%
DATA                 0      0      7E       3        0.0%
CODE                 0      0       0       0        0.0%


Microchip Technology PIC18 Macro Assembler V2.41 build 20230208172133 
Symbol Table                                                                                   Sat Sep 30 15:10:26 2023

                             _led_intialize 15B8                                         l413 151A  
                                       l262 15D4                                         l273 16B4  
                                       l434 1810                                         l266 1636  
                                       l347 1916                                         l427 15B6  
                                       l283 16D0                                         l269 1652  
                                       l287 172E                                         l395 13EE  
                                       l752 1A4C                                         l755 1A26  
                                       l772 1A52                                         l797 18DC  
                                       _ret 0078                                         prod 0FF3  
                                       tosl 0FFD                                         wreg 0FE8  
                 _RB5_InterruptHandler_High 004F                             __end_of_RB4_ISR 1A64  
                           __end_of_RB5_ISR 1A60                             __end_of_RB6_ISR 1A5C  
                           __end_of_RB7_ISR 1A58                                        l3210 1A10  
                                      l3220 18BA                                        l3204 1A28  
                                      l3230 18CA                                        l3222 18C0  
                                      l3214 189C                                        l4110 164A  
                                      l3070 16B6                                        l3206 1A36  
                                      l3232 18CC                                        l3224 18C4  
                                      l3216 18A0                                        l4040 18FA  
                                      l4112 1656                                        l4120 16B2  
                                      l3080 170C                                        l3072 16B6  
                                      l3208 1A02                                        l3234 18CE  
                                      l3226 18C6                                        l3218 18B2  
                                      l4042 1908                                        l4034 18DE  
                                      l4114 168C                                        l4106 1638  
                                      l3082 171E                                        l3074 16C8  
                                      l3228 18C8                                        l3236 18DA  
                                      l4036 18DE                                        l4124 1A4E  
                                      l4116 168E                                        l4108 1638  
                                      l3076 16D4                                        l3084 172C  
                                      l4038 18EC                                        l4118 16A0  
                                      l3078 170A                                        l3900 1406  
                                      l3910 14EE                                        l3902 1428  
                                      l2950 1532                                        l3904 1430  
                                      l3912 1518                                        l3920 17A6  
                                      l2952 1554                                        l3906 1492  
                                      l3930 180E                                        l3922 17A6  
                                      l2954 155C                                        l2946 151C  
                                      l4650 1768                                        l4642 1730  
                                      l3924 17B8                                        l3940 15D8  
                                      l2956 15B4                                        l2948 1520  
                                      l4652 177A                                        l4644 1734  
                                      l3926 17DA                                        l3942 160E  
                                      l3934 15B8                                        l4654 1782  
                                      l4646 1750                                        l3880 12EC  
                                      l3872 12AC                                        l3928 17E2  
                                      l3944 1610                                        l3936 15B8  
                                      l4648 1760                                        l3882 134E  
                                      l3874 12B0                                        l3946 1624  
                                      l3938 15CC                                        l3876 12C2  
                                      l3948 1634                                        l3886 13AA  
                                      l3878 12E4                                        l3888 13EC  
                                      l4696 1502                                        l3896 13F0  
                                      l4698 13D6                                        l3898 13F4  
                   ??_Data_EEPROM_WriteByte 0066                                        STR_1 1011  
                                      u2110 18B2                                        u2111 18AE  
                                      u3010 13C2                                        u3011 13BC  
                                      u3020 13C4                                        u3004 136E  
                                      u3005 136A                                        _LATA 0F89  
                                      u3030 1406                                        _LATB 0F8A  
                                      u3031 1402                                        _LATC 0F8B  
                                      u3040 1428                                        _LATD 0F8C  
                                      u3041 1424                                        u3105 1620  
                                      _LATE 0F8D                                        u3107 1624  
                                      u3054 1450                                        u3070 17B8  
                                      u3055 144C                                        u3071 17B4  
                                      u3064 14B2                                        u3080 17DA  
                                      u3240 164A                                        u3065 14AE  
                                      u3081 17D6                                        u3241 1646  
                                      u3090 15CC                                        u3091 15C8  
                                      u1820 1532                                        u1821 152E  
                                      u1830 1554                                        u3255 169E  
                                      u1831 1550                                        u3257 16A0  
                                      u1844 157C                                        u1940 16C8  
                                      u1845 1578                                        u1941 16C4  
                                      u3710 1760                                        u3711 175C  
                                      u3720 177A                                        u3721 1776  
                                      u1955 171C                                        u1957 171E  
                                      u3737 1A1A                                        u2970 12C2  
                                      u2971 12BE                                        u3747 1A40  
                                      u2980 12E4                                        u2981 12E0  
                                      u2994 130C                                        u2995 1308  
                             ?_INT0_App_ISR 0063                                        _main 1730  
                  _RB4_InterruptHandler_Low 0051                                        fsr2h 0FDA  
                                      indf2 0FDF                                        fsr1l 0FE1  
                                      fsr2l 0FD9                                        btemp 0079  
                  _RB7_InterruptHandler_Low 0045                                        prodl 0FF3  
                                      start 000E                               ?_led_turn_off 0073  
                            ?_led_intialize 0080                                ___param_bank 0000  
                    ?_gpio_pin_toggle_logic 0069                        _gpio_pin_write_logic 13F0  
                          __end_of_INT0_ISR 19D8                            __end_of_INT1_ISR 19AA  
                          __end_of_INT2_ISR 197C                                       ?_main 0063  
                  ??_application_initialize 0078                                       _EEADR 0FA9  
                                     i2l501 1080                                       i2l511 11D4  
                                     i2l503 10C4                                       i2l513 1218  
                                     i2l505 1108                                       i2l515 125C  
                                     i2l507 114C                                       i2l509 1190  
                                     i2l710 1A56                                       i2l518 12A0  
                                     i2l704 1A5A                                       i2l497 1040  
                                     i2l682 19A8                                       i2l499 1060  
                                     i2l692 1A62                                       i2l749 1A00  
                                     i2l678 19D6                                       i2l686 197A  
                                     i2l791 1848                                       i2l792 1856  
                                     i2l698 1A5E                                       i2l789 183A  
                       relay_turn_off@F3052 005C                                       _PORTA 0F80  
                                     _PORTB 0F81                                       _PORTC 0F82  
                                     _PORTD 0F83                                       _PORTE 0F84  
                                     _TRISA 0F92                                       _TRISB 0F93  
                                     _TRISC 0F94                                       _TRISD 0F95  
                                     _TRISE 0F96                                       _lcd_1 0037  
                                     _lcd_2 001F                                       _led_1 0044  
                                     _led_2 0043                                       _led_3 0042  
                                     _led_4 0041                                       pclath 0FFA  
                                     pclatu 0FFB                                       tablat 0FF5  
                            ??_INT0_App_ISR 0067                                       ttemp5 007A  
                                     ttemp6 007D                                       ttemp7 0081  
                                     status 0FD8                                       wtemp8 007A  
              __end_of_Data_EEPROM_ReadByte 18DE                              ??_led_turn_off 0075  
            ?_gpio_pin_direction_initialize 0069                             __initialization 1918  
                              __end_of_main 17A6                       ?_gpio_pin_write_logic 0069  
                             _lat_registers 000B                                      ??_main 0084  
                             __activetblptr 0003                            led_turn_on@F3058 0060  
                                 ??_RB4_ISR 0063                                   ??_RB5_ISR 0063  
                                 ??_RB6_ISR 0063                                   ??_RB7_ISR 0063  
                                    _EEADRH 0FAA                                      _EEDATA 0FA8  
                                    _EECON2 0FA7                                      i2l3100 19DA  
                                    i2l3102 19EC                                      i2l3104 19F0  
                                    i2l3200 1950                                      i2l3202 1962  
                                    i2l3190 19BE                                      i2l3192 197C  
                                    i2l1832 1A60                                      i2l1840 1A5C  
                                    i2l3098 19D8                                      i2l3186 19AA  
                                    i2l3194 197E                                      i2l3188 19AC  
                                    i2l3196 1990                                      i2l3700 104E  
                                    i2l3198 194E                                      i2l3710 109C  
                                    i2l3702 105C                                      i2l1848 1A58  
                                    i2l1856 1A54                                      i2l3720 10E0  
                                    i2l3712 10AA                                      i2l3704 106E  
                                    i2l3730 1124                                      i2l3722 10EE  
                                    i2l3714 10BA                                      i2l3706 107C  
                                    i2l3740 1168                                      i2l3732 1132  
                                    i2l3724 10FE                                      i2l3716 10BE  
                                    i2l3708 108E                                      i2l3750 11AC  
                                    i2l3742 1176                                      i2l3734 1142  
                                    i2l3726 1102                                      i2l3718 10D2  
                                    i2l2960 1812                                      i2l3760 11F0  
                                    i2l3752 11BA                                      i2l3744 1186  
                                    i2l3736 1146                                      i2l3728 1116  
                                    i2l2970 1828                                      i2l2962 1812  
                                    i2l3770 1234                                      i2l3762 11FE  
                                    i2l3754 11CA                                      i2l3746 118A  
                                    i2l3738 115A                                      i2l2980 1834  
                                    i2l2972 182A                                      i2l2964 181A  
                                    i2l3780 1278                                      i2l3772 1242  
                                    i2l3764 120E                                      i2l3756 11CE  
                                    i2l3748 119E                                      i2l2982 1838  
                                    i2l2974 182C                                      i2l2966 1820  
                                    i2l3782 1286                                      i2l3774 1252  
                                    i2l3766 1212                                      i2l3758 11E2  
                                    i2l3694 1020                                      i2l2984 1854  
                                    i2l2976 182E                                      i2l2968 1824  
                                    i2l3784 1296                                      i2l3776 1256  
                                    i2l3768 1226                                      i2l3696 102E  
                                    i2l2978 1830                                      i2l3786 129A  
                                    i2l3778 126A                                      i2l3698 103C  
          gpio_pin_toggle_logic@_pin_config 0069                             ??_led_intialize 0077  
                  gpio_pin_toggle_logic@ret 0070                            led_intialize@led 0080  
                          led_intialize@ret 0082                                      clear_0 193E  
                                    isa$std 0001                                __pdataCOMRAM 0001  
                              __mediumconst 0000                                      tblptrh 0FF7  
                                    tblptrl 0FF6                                      tblptru 0FF8  
                          __end_of_program1 1A4E                            __end_of_program2 1A28  
                ?_Ecu_interfaces_initialize 0063                             _InterruptManger 0008  
                                __accesstop 0080                     __end_of__initialization 1944  
                                 ?_INT0_ISR 0063                                   ?_INT1_ISR 0063  
                                 ?_INT2_ISR 0063                               ___rparam_used 0001  
                    ??_gpio_pin_write_logic 006C                              __pcstackCOMRAM 0063  
                         RB5_ISR@RB5_source 0063                        __end_of_INT0_App_ISR 1A02  
  gpio_pin_direction_initialize@_pin_config 0069                     Data_EEPROM_ReadByte@ret 006D  
                      _Data_EEPROM_ReadByte 189C                        __end_of_led_turn_off 16B6  
         __end_of_Ecu_interfaces_initialize 1918               __end_of_Data_EEPROM_WriteByte 1858  
                     _INT0_InterruptHandler 0059                                  ??_INT0_ISR 0067  
                                ??_INT1_ISR 0067                                  ??_INT2_ISR 0067  
                    _application_initialize 1A4E                                  __pnvCOMRAM 0078  
                   ??_gpio_pin_toggle_logic 006B                        relay_intialize@F3042 005E  
                         led_turn_off@F3053 0061                               led_toggle@led 0071  
                             led_toggle@ret 0074                             led_toggle@F3063 005F  
                                   _RB4_ISR 1A60                                     _RB5_ISR 1A5C  
                     ?_Data_EEPROM_ReadByte 0069                                     _RB6_ISR 1A58  
                                   _RB7_ISR 1A54                     __end_of_InterruptManger 12AC  
                 _RB6_InterruptHandler_High 004B                           RB7_ISR@RB7_source 0063  
Data_EEPROM_WriteByte@Data_Interrupts_Staus 0066                                  _led_toggle 16B6  
                            _tris_registers 0015                    _RB6_InterruptHandler_Low 0049  
                                   __Hparam 0000                                     __Lparam 0000  
                      led_intialize@pin_obj 0083                         _gpio_pin_initialize 17A6  
                                 ?_program1 0063                                   ?_program2 0063  
                              __psmallconst 1000                                     __pcinit 1918  
                                   __ramtop 1000                                     __ptext0 1730  
                                   __ptext1 1A02                                     __ptext2 1A28  
                                   __ptext3 16B6                                     __ptext4 151C  
                                   __ptext5 1638                                     __ptext6 1A4E  
                                   __ptext7 18DE                                     __ptext8 15B8  
                                   __ptext9 17A6             ??_gpio_pin_direction_initialize 006B  
                                   _keypad1 0029                        ?_gpio_pin_initialize 0073  
                            __pintcode_body 1016                        end_of_initialization 1944  
                                   int_func 1016                         led_turn_off@pin_obj 0077  
                                   postdec1 0FE5                                     postdec2 0FDD  
                                ??_program1 0076                                  ??_program2 0076  
                                   postinc0 0FEE                                     postinc2 0FDE  
                     _INT1_InterruptHandler 0057                                   _PORTBbits 0F81  
                         led_toggle@pin_obj 0075                      ??_Data_EEPROM_ReadByte 006D  
                          ?_InterruptManger 0063                       ??_gpio_pin_initialize 0075  
                               ?_led_toggle 0071                 ??_Ecu_interfaces_initialize 0078  
                              _INT0_App_ISR 19D8                                _led_turn_off 1638  
                     __end_of_led_intialize 1638                          relay_turn_on@F3047 005D  
                             __pidataCOMRAM 1858                         start_initialization 1918  
     __end_of_gpio_pin_direction_initialize 13F0               _gpio_pin_direction_initialize 12AC  
                   ?_application_initialize 0063                    Data_EEPROM_ReadByte@bAdd 0069  
                           led_turn_off@led 0073                             led_turn_off@ret 0076  
             __end_of_gpio_pin_toggle_logic 15B8                   _Ecu_interfaces_initialize 18DE  
                                  ?_RB4_ISR 0063                                    ?_RB5_ISR 0063  
                                  ?_RB6_ISR 0063                                    ?_RB7_ISR 0063  
                               __pbssCOMRAM 0045                               __pcstackBANK0 0080  
            __end_of_application_initialize 1A54                       _INT2_InterruptHandler 0055  
                     _Data_EEPROM_WriteByte 1812                                   __pintcode 0008  
           gpio_pin_write_logic@_pin_config 0069                   gpio_pin_write_logic@logic 006B  
                               __smallconst 1000                   _RB4_InterruptHandler_High 0053  
                 _RB7_InterruptHandler_High 0047                                    _INT0_ISR 19AA  
                                  _INT1_ISR 197C                                    _INT2_ISR 194E  
                  _RB5_InterruptHandler_Low 004D                                    _RB4_Flag 0040  
                                  _RB5_Flag 003F                                    _RB6_Flag 003E  
                                  _RB7_Flag 003D                                    i2u210_48 1968  
                                  i2u210_49 197A                                    i2u205_40 19BE  
                                  i2u205_41 19BA                                    i2u206_48 19C4  
                                  i2u207_40 1990                                    i2u206_49 19D6  
                                  i2u207_41 198C                                    i2u208_48 1996  
                                  i2u209_40 1962                                    i2u208_49 19A8  
                                  i2u209_41 195E                                    i2u260_40 108E  
                                  i2u260_41 108A                                    i2u261_40 109C  
                                  i2u261_41 1098                                    i2u270_40 1132  
                                  i2u262_40 10AA                                    i2u254_40 102E  
                                  i2u270_41 112E                                    i2u262_41 10A6  
                                  i2u254_41 102A                                    i2u271_40 1142  
                                  i2u263_40 10BA                                    i2u255_40 103C  
                                  i2u271_41 113E                                    i2u263_41 10B6  
                                  i2u255_41 1038                                    i2u280_40 11E2  
                                  i2u272_40 115A                                    i2u264_40 10D2  
                                  i2u256_40 104E                                    i2u280_41 11DE  
                                  i2u272_41 1156                                    i2u264_41 10CE  
                                  i2u256_41 104A                                    i2u185_40 1848  
                                  i2u281_40 11F0                                    i2u273_40 1168  
                                  i2u265_40 10E0                                    i2u257_40 105C  
                                  i2u185_41 1844                                    i2u281_41 11EC  
                                  i2u273_41 1164                                    i2u265_41 10DC  
                                  i2u257_41 1058                                    i2u290_40 1286  
                                  i2u282_40 11FE                                    i2u274_40 1176  
                                  i2u266_40 10EE                                    i2u258_40 106E  
                                  i2u290_41 1282                                    i2u282_41 11FA  
                                  i2u274_41 1172                                    i2u266_41 10EA  
                                  i2u258_41 106A                                    i2u186_45 1852  
                                  i2u186_46 1854                                    i2u291_40 1296  
                                  i2u283_40 120E                                    i2u275_40 1186  
                                  i2u267_40 10FE                                    i2u259_40 107C  
                                  i2u291_41 1292                                    i2u283_41 120A  
                                  i2u275_41 1182                                    i2u267_41 10FA  
                                  i2u259_41 1078                                    i2u196_40 19EC  
                                  i2u284_40 1226                                    i2u276_40 119E  
                                  i2u268_40 1116                                    i2u196_41 19E8  
                                  i2u284_41 1222                                    i2u276_41 119A  
                                  i2u268_41 1112                                    i2u285_40 1234  
                                  i2u277_40 11AC                                    i2u269_40 1124  
                                  i2u285_41 1230                                    i2u277_41 11A8  
                                  i2u269_41 1120                                    i2u286_40 1242  
                                  i2u278_40 11BA                                    i2u286_41 123E  
                                  i2u278_41 11B6                                    i2u287_40 1252  
                                  i2u279_40 11CA                                    i2u287_41 124E  
                                  i2u279_41 11C6                                    i2u288_40 126A  
                                  i2u288_41 1266                                    i2u289_40 1278  
                                  i2u289_41 1274            gpio_pin_direction_initialize@ret 0071  
                         RB4_ISR@RB4_source 0063                           _keypad_btn_values 1001  
                 Data_EEPROM_ReadByte@bData 006B                      gpio_pin_initialize@ret 0076  
                   gpio_pin_write_logic@ret 0072                                 _INTCON2bits 0FF1  
                               _INTCON3bits 0FF0                                   copy_data0 192C  
                              ??_led_toggle 0073                      ?_Data_EEPROM_WriteByte 0063  
                                _EECON1bits 0FA6                                    __Hrparam 0000  
                 __end_of_keypad_btn_values 1011                                    __Lrparam 0000  
               __end_of_gpio_pin_initialize 1812                          __end_of_led_toggle 1730  
            gpio_pin_initialize@_pin_config 0073                          led_intialize@F3048 0062  
                         RB6_ISR@RB6_source 0063                                    __ptext10 13F0  
                                  __ptext11 12AC                                    __ptext20 19AA  
                                  __ptext12 189C                                    __ptext21 19D8  
                                  __ptext22 1812                                    __ptext14 1A54  
                                  __ptext23 0000                                    __ptext15 1A58  
                                  __ptext16 1A5C                                    __ptext17 1A60  
                                  __ptext18 194E                                    __ptext19 197C  
                                  _int0_obj 0031                                    isa$xinst 0000  
                           _program_counter 005B                                    _program1 1A28  
                                  _program2 1A02                                    int$flags 0079  
                                _INTCONbits 0FF2                __end_of_gpio_pin_write_logic 151C  
                                  intlevel2 0000                  Data_EEPROM_WriteByte@bData 0065  
                     _gpio_pin_toggle_logic 151C                              _port_registers 0001  
                 Data_EEPROM_WriteByte@bAdd 0063                             fp__INT0_App_ISR 0000  
                         ??_InterruptManger 0067  
